(lp0
(dp1
S'score'
p2
cnumpy.core.multiarray
scalar
p3
(cnumpy
dtype
p4
(S'f8'
p5
I0
I1
tp6
Rp7
(I3
S'<'
p8
NNNI-1
I-1
I0
tp9
bS'\x91\xae\x82\xc4\xe1\xb5\xd7?'
p10
tp11
Rp12
sS'best_subset_16'
p13
(lp14
I1
aI2
aI3
aI4
aI5
aI6
aI7
aI8
aI9
aI10
aI11
aI12
aI13
aI14
aI15
aI16
asa(dp15
g2
g3
(g7
S'\xfa\xb1\x1f\xfb\xb1\x1f\xdb?'
p16
tp17
Rp18
sS'best_subset_15'
p19
(I1
I3
I4
I5
I6
I7
I8
I9
I10
I11
I12
I13
I14
I15
I16
tp20
sa(dp21
g2
g3
(g7
S"\xfd'\xe6\xc8\xf4\xb2\xdd?"
p22
tp23
Rp24
sS'best_subset_14'
p25
(I1
I3
I4
I5
I6
I7
I8
I9
I10
I11
I12
I13
I15
I16
tp26
sa(dp27
S'best_subset_13'
p28
(I2
I3
I4
I6
I7
I8
I9
I10
I11
I13
I14
I15
I16
tp29
sg2
g3
(g7
S'\x92\xae\x82\xc4\xe1\xb5\xdf?'
p30
tp31
Rp32
sa(dp33
S'best_subset_12'
p34
(I2
I3
I4
I6
I7
I8
I9
I10
I13
I14
I15
I16
tp35
sg2
g3
(g7
S'~\xb1\xe4\x17K~\xe1?'
p36
tp37
Rp38
sa(dp39
S'best_subset_11'
p40
(I2
I3
I4
I6
I7
I9
I10
I13
I14
I15
I16
tp41
sg2
g3
(g7
S'\xe1z\x14\xaeG\xe1\xe2?'
p42
tp43
Rp44
sa(dp45
S'best_subset_10'
p46
(I3
I4
I6
I7
I8
I9
I10
I13
I15
I16
tp47
sg2
g3
(g7
S'\xa3p=\n\xd7\xa3\xe4?'
p48
tp49
Rp50
sa(dp51
S'best_subset_9'
p52
(I3
I4
I6
I7
I9
I13
I14
I15
I16
tp53
sg2
g3
(g7
S'\x03\x9d6\xd0i\x03\xe5?'
p54
tp55
Rp56
sa(dp57
S'best_subset_8'
p58
(I3
I4
I6
I7
I9
I14
I15
I16
tp59
sg2
g3
(g7
S'\xb5\x81N\x1b\xe8\xb4\xe5?'
p60
tp61
Rp62
sa(dp63
g2
g3
(g7
S'\xc2\xf5(\\\x8f\xc2\xe5?'
p64
tp65
Rp66
sS'best_subset_7'
p67
(I3
I4
I6
I10
I13
I15
I16
tp68
sa(dp69
g2
g3
(g7
S'\xb5\x81N\x1b\xe8\xb4\xe5?'
p70
tp71
Rp72
sS'best_subset_6'
p73
(I2
I8
I13
I14
I15
I16
tp74
sa(dp75
g2
g3
(g7
S'\x9a\x99\x99\x99\x99\x99\xe5?'
p76
tp77
Rp78
sS'best_subset_5'
p79
(I1
I2
I8
I13
I15
tp80
sa.