ccopy_reg
_reconstructor
p0
(cpandas.core.frame
DataFrame
p1
cdill.dill
_load_type
p2
(S'ObjectType'
p3
tp4
Rp5
Ntp6
Rp7
(dp8
S'_metadata'
p9
(lp10
sS'_typ'
p11
S'dataframe'
p12
sS'_data'
p13
g0
(cpandas.core.internals
BlockManager
p14
g5
Ntp15
Rp16
((lp17
cpandas.core.indexes.base
_new_Index
p18
(cpandas.core.indexes.base
Index
p19
(dp20
S'data'
p21
cnumpy.core.multiarray
_reconstruct
p22
(cnumpy
ndarray
p23
(I0
tp24
S'b'
p25
tp26
Rp27
(I1
(I21
tp28
cnumpy
dtype
p29
(S'O8'
p30
I0
I1
tp31
Rp32
(I3
S'|'
p33
NNNI-1
I-1
I63
tp34
bI00
(lp35
S'salary'
p36
aS'to_messages'
p37
aS'deferral_payments'
p38
aS'total_payments'
p39
aS'exercised_stock_options'
p40
aS'bonus'
p41
aS'restricted_stock'
p42
aS'shared_receipt_with_poi'
p43
aS'restricted_stock_deferred'
p44
aS'total_stock_value'
p45
aS'expenses'
p46
aS'loan_advances'
p47
aS'from_messages'
p48
aS'other'
p49
aS'from_this_person_to_poi'
p50
aS'poi'
p51
aS'director_fees'
p52
aS'deferred_income'
p53
aS'long_term_incentive'
p54
aS'email_address'
p55
aS'from_poi_to_this_person'
p56
atp57
bsS'name'
p58
Nstp59
Rp60
ag18
(g19
(dp61
g21
g22
(g23
(I0
tp62
g25
tp63
Rp64
(I1
(I146
tp65
g32
I00
(lp66
S'ALLEN PHILLIP K'
p67
aS'BADUM JAMES P'
p68
aS'BANNANTINE JAMES M'
p69
aS'BAXTER JOHN C'
p70
aS'BAY FRANKLIN R'
p71
aS'BAZELIDES PHILIP J'
p72
aS'BECK SALLY W'
p73
aS'BELDEN TIMOTHY N'
p74
aS'BELFER ROBERT'
p75
aS'BERBERIAN DAVID'
p76
aS'BERGSIEKER RICHARD P'
p77
aS'BHATNAGAR SANJAY'
p78
aS'BIBI PHILIPPE A'
p79
aS'BLACHMAN JEREMY M'
p80
aS'BLAKE JR. NORMAN P'
p81
aS'BOWEN JR RAYMOND M'
p82
aS'BROWN MICHAEL'
p83
aS'BUCHANAN HAROLD G'
p84
aS'BUTTS ROBERT H'
p85
aS'BUY RICHARD B'
p86
aS'CALGER CHRISTOPHER F'
p87
aS'CARTER REBECCA C'
p88
aS'CAUSEY RICHARD A'
p89
aS'CHAN RONNIE'
p90
aS'CHRISTODOULOU DIOMEDES'
p91
aS'CLINE KENNETH W'
p92
aS'COLWELL WESLEY'
p93
aS'CORDES WILLIAM R'
p94
aS'COX DAVID'
p95
aS'CUMBERLAND MICHAEL S'
p96
aS'DEFFNER JOSEPH M'
p97
aS'DELAINEY DAVID W'
p98
aS'DERRICK JR. JAMES V'
p99
aS'DETMERING TIMOTHY J'
p100
aS'DIETRICH JANET R'
p101
aS'DIMICHELE RICHARD G'
p102
aS'DODSON KEITH'
p103
aS'DONAHUE JR JEFFREY M'
p104
aS'DUNCAN JOHN H'
p105
aS'DURAN WILLIAM D'
p106
aS'ECHOLS JOHN B'
p107
aS'ELLIOTT STEVEN'
p108
aS'FALLON JAMES B'
p109
aS'FASTOW ANDREW S'
p110
aS'FITZGERALD JAY L'
p111
aS'FOWLER PEGGY'
p112
aS'FOY JOE'
p113
aS'FREVERT MARK A'
p114
aS'FUGH JOHN L'
p115
aS'GAHN ROBERT S'
p116
aS'GARLAND C KEVIN'
p117
aS'GATHMANN WILLIAM D'
p118
aS'GIBBS DANA R'
p119
aS'GILLIS JOHN'
p120
aS'GLISAN JR BEN F'
p121
aS'GOLD JOSEPH'
p122
aS'GRAMM WENDY L'
p123
aS'GRAY RODNEY'
p124
aS'HAEDICKE MARK E'
p125
aS'HANNON KEVIN P'
p126
aS'HAUG DAVID L'
p127
aS'HAYES ROBERT E'
p128
aS'HAYSLETT RODERICK J'
p129
aS'HERMANN ROBERT J'
p130
aS'HICKERSON GARY J'
p131
aS'HIRKO JOSEPH'
p132
aS'HORTON STANLEY C'
p133
aS'HUGHES JAMES A'
p134
aS'HUMPHREY GENE E'
p135
aS'IZZO LAWRENCE L'
p136
aS'JACKSON CHARLENE R'
p137
aS'JAEDICKE ROBERT'
p138
aS'KAMINSKI WINCENTY J'
p139
aS'KEAN STEVEN J'
p140
aS'KISHKILL JOSEPH G'
p141
aS'KITCHEN LOUISE'
p142
aS'KOENIG MARK E'
p143
aS'KOPPER MICHAEL J'
p144
aS'LAVORATO JOHN J'
p145
aS'LAY KENNETH L'
p146
aS'LEFF DANIEL P'
p147
aS'LEMAISTRE CHARLES'
p148
aS'LEWIS RICHARD'
p149
aS'LINDHOLM TOD A'
p150
aS'LOCKHART EUGENE E'
p151
aS'LOWRY CHARLES P'
p152
aS'MARTIN AMANDA K'
p153
aS'MCCARTY DANNY J'
p154
aS'MCCLELLAN GEORGE'
p155
aS'MCCONNELL MICHAEL S'
p156
aS'MCDONALD REBECCA'
p157
aS'MCMAHON JEFFREY'
p158
aS'MENDELSOHN JOHN'
p159
aS'METTS MARK'
p160
aS'MEYER JEROME J'
p161
aS'MEYER ROCKFORD G'
p162
aS'MORAN MICHAEL P'
p163
aS'MORDAUNT KRISTINA M'
p164
aS'MULLER MARK S'
p165
aS'MURRAY JULIA H'
p166
aS'NOLES JAMES L'
p167
aS'OLSON CINDY K'
p168
aS'OVERDYKE JR JERE C'
p169
aS'PAI LOU L'
p170
aS'PEREIRA PAULO V. FERRAZ'
p171
aS'PICKERING MARK R'
p172
aS'PIPER GREGORY F'
p173
aS'PIRO JIM'
p174
aS'POWERS WILLIAM'
p175
aS'PRENTICE JAMES'
p176
aS'REDMOND BRIAN L'
p177
aS'REYNOLDS LAWRENCE'
p178
aS'RICE KENNETH D'
p179
aS'RIEKER PAULA H'
p180
aS'SAVAGE FRANK'
p181
aS'SCRIMSHAW MATTHEW'
p182
aS'SHANKMAN JEFFREY A'
p183
aS'SHAPIRO RICHARD S'
p184
aS'SHARP VICTORIA T'
p185
aS'SHELBY REX'
p186
aS'SHERRICK JEFFREY B'
p187
aS'SHERRIFF JOHN R'
p188
aS'SKILLING JEFFREY K'
p189
aS'STABLER FRANK'
p190
aS'SULLIVAN-SHAKLOVITZ COLLEEN'
p191
aS'SUNDE MARTIN'
p192
aS'TAYLOR MITCHELL S'
p193
aS'THE TRAVEL AGENCY IN THE PARK'
p194
aS'THORN TERENCE H'
p195
aS'TILNEY ELIZABETH A'
p196
aS'TOTAL'
p197
aS'UMANOFF ADAM S'
p198
aS'URQUHART JOHN A'
p199
aS'WAKEHAM JOHN'
p200
aS'WALLS JR ROBERT H'
p201
aS'WALTERS GARETH W'
p202
aS'WASAFF GEORGE'
p203
aS'WESTFAHL RICHARD K'
p204
aS'WHALEY DAVID A'
p205
aS'WHALLEY LAWRENCE G'
p206
aS'WHITE JR THOMAS E'
p207
aS'WINOKUR JR. HERBERT S'
p208
aS'WODRASKA JOHN'
p209
aS'WROBEL BRUCE'
p210
aS'YEAGER F SCOTT'
p211
aS'YEAP SOON'
p212
atp213
bsg58
Nstp214
Rp215
a(lp216
g22
(g23
(I0
tp217
g25
tp218
Rp219
(I1
(I1
I146
tp220
g29
(S'b1'
p221
I0
I1
tp222
Rp223
(I3
S'|'
p224
NNNI-1
I-1
I0
tp225
bI00
S'\x00\x00\x00\x00\x00\x00\x00\x01\x00\x00\x00\x00\x00\x00\x00\x01\x00\x00\x00\x00\x01\x00\x01\x00\x00\x00\x01\x00\x00\x00\x00\x01\x00\x00\x00\x00\x00\x00\x00\x00\x00\x00\x00\x01\x00\x00\x00\x00\x00\x00\x00\x00\x00\x00\x01\x00\x00\x00\x00\x01\x00\x00\x00\x00\x00\x01\x00\x00\x00\x00\x00\x00\x00\x00\x00\x00\x01\x01\x00\x01\x00\x00\x00\x00\x00\x00\x00\x00\x00\x00\x00\x00\x00\x00\x00\x00\x00\x00\x00\x00\x00\x00\x00\x00\x00\x00\x00\x00\x00\x00\x00\x00\x01\x01\x00\x00\x00\x00\x00\x01\x00\x00\x01\x00\x00\x00\x00\x00\x00\x00\x00\x00\x00\x00\x00\x00\x00\x00\x00\x00\x00\x00\x00\x00\x01\x00'
p226
tp227
bag22
(g23
(I0
tp228
g25
tp229
Rp230
(I1
(I20
I146
tp231
g32
I00
(lp232
I201955
aS'NaN'
p233
aI477
aI267102
aI239671
aI80818
aI231330
aI213999
ag233
aI216582
aI187922
ag233
aI213625
aI248546
ag233
aI278601
ag233
aI248017
aI261516
aI330546
aI240189
aI261809
aI415189
ag233
ag233
ag233
aI288542
ag233
aI314288
aI184899
aI206121
aI365163
aI492375
aI210500
aI250100
aI262788
aI221003
aI278601
ag233
aI210692
aI182245
aI170941
aI304588
aI440698
aI199157
ag233
ag233
aI1060932
ag233
aI192008
aI231946
ag233
ag233
ag233
aI274975
aI272880
ag233
aI6615
aI374125
aI243293
ag233
ag233
ag233
aI262663
aI211788
ag233
ag233
ag233
aI130724
aI85274
aI288558
ag233
aI275101
aI404338
aI174246
aI271442
aI309946
aI224305
aI339288
aI1072321
aI273746
ag233
ag233
aI236457
ag233
ag233
aI349487
ag233
aI263413
aI365038
ag233
aI370448
ag233
aI365788
ag233
ag233
ag233
aI267093
aI251654
aI229284
ag233
aI329078
aI94941
aI261879
ag233
aI655037
aI197091
ag233
ag233
ag233
aI96840
aI76399
aI420636
aI249201
ag233
ag233
aI304110
aI269076
aI248146
aI211844
ag233
aI428780
aI1111258
aI239502
aI162779
aI257486
aI265214
ag233
aI222093
aI247338
aI26704229
aI288589
ag233
ag233
aI357091
ag233
aI259996
aI63744
ag233
aI510364
aI317543
ag233
ag233
ag233
aI158403
ag233
aI2902
ag233
aI566
ag233
ag233
ag233
aI7315
aI7991
ag233
ag233
aI383
aI523
aI1607
aI2475
ag233
aI1858
aI1486
aI1088
ag233
aI3523
aI2598
aI312
aI1892
ag233
ag233
ag233
aI1758
aI764
aI102
ag233
aI714
aI3093
aI2181
ag233
aI2572
ag233
aI176
aI865
ag233
aI904
ag233
ag233
aI1755
ag233
aI936
aI517
aI57
aI3275
ag233
ag233
aI209
ag233
aI169
ag233
aI873
ag233
ag233
ag233
aI4009
aI1045
aI573
aI504
aI2649
ag233
aI1320
ag233
aI2350
aI719
aI128
aI496
aI258
ag233
aI4607
aI12754
ag233
aI8305
aI2374
ag233
aI7259
aI4273
aI2822
ag233
aI952
ag233
ag233
ag233
aI1522
aI1433
aI1744
aI3329
aI894
aI2355
ag233
aI807
ag233
aI232
aI672
ag233
aI136
aI2192
ag233
aI1184
ag233
ag233
ag233
aI898
aI1238
aI58
aI653
ag233
aI1671
ag233
aI905
aI1328
ag233
ag233
aI3221
aI15149
aI3136
aI225
aI613
aI3187
aI3627
ag233
ag233
aI2647
aI533
ag233
aI266
aI460
ag233
aI111
ag233
ag233
aI671
ag233
aI400
ag233
ag233
aI6019
ag233
ag233
ag233
ag233
ag233
ag233
aI2869717
aI178980
ag233
aI1295738
aI260455
aI684694
ag233
aI2144013
aI-102500
ag233
ag233
ag233
ag233
ag233
ag233
ag233
ag233
ag233
ag233
aI649584
ag233
ag233
ag233
ag233
ag233
ag233
aI27610
ag233
ag233
ag233
ag233
ag233
ag233
aI875307
ag233
ag233
ag233
ag233
ag233
ag233
ag233
ag233
ag233
ag233
ag233
ag233
aI181755
aI6426990
aI50591
aI73122
ag233
ag233
aI504610
ag233
ag233
ag233
ag233
aI93585
aI2157527
ag233
ag233
aI7961
ag233
ag233
ag233
aI10259
aI3131860
ag233
aI2964506
ag233
ag233
ag233
ag233
ag233
ag233
ag233
ag233
ag233
ag233
aI202911
ag233
ag233
ag233
aI204075
ag233
ag233
aI85430
ag233
ag233
ag233
ag233
ag233
ag233
ag233
ag233
aI1848227
ag233
ag233
aI842924
ag233
aI774401
aI77716
ag233
ag233
ag233
ag233
aI1130036
ag233
ag233
aI564348
ag233
aI51365
ag233
aI214678
ag233
ag233
ag233
ag233
aI187469
ag233
ag233
ag233
ag233
ag233
aI181993
ag233
aI227449
ag233
aI16586
ag233
aI32083396
ag233
ag233
ag233
ag233
aI53625
aI831299
ag233
ag233
ag233
ag233
ag233
ag233
ag233
ag233
ag233
aI4484442
aI182466
aI916197
aI5634343
aI827696
aI860136
aI969068
aI5501630
aI102500
aI228474
aI618850
aI15456290
aI2047593
aI2014835
aI1279
aI2669589
aI49288
aI1054637
aI1271582
aI2355702
aI1639297
aI477557
aI1868758
ag233
ag233
ag233
aI1490344
ag233
aI1101393
aI807956
aI1208649
aI4747979
aI550981
aI1204583
aI1410464
aI2368151
aI319941
aI875760
aI77492
aI2093263
aI2692324
aI211725
aI3676340
aI2424083
aI1414857
ag233
aI181755
aI17252530
aI50591
aI900585
aI1566469
ag233
aI966522
ag233
aI1272284
aI2146973
aI119292
aI1146658
aI3859065
aI288682
aI475
aI7961
ag233
aI1297461
aI2081796
aI91093
aI3131860
ag233
aI3100224
aI1979596
aI551174
aI83750
aI1086821
aI1747522
aI704896
aI3471141
aI1587421
aI2652612
aI10425757
aI103559793
aI2664228
aI87492
ag233
aI875889
ag233
ag233
aI8407016
ag233
aI1318763
aI2101364
ag233
aI4099771
aI148
aI1061827
aI2151
aI1848227
ag233
aI628522
aI3202070
aI812194
aI774401
aI1321557
aI249787
aI3123383
aI27942
aI1386690
aI1737629
ag233
ag233
aI564348
aI111529
aI394475
aI505050
aI1099100
aI3750
ag233
aI3038702
aI1057548
aI1576511
aI2003885
ag233
aI4335388
aI8682716
aI1112087
aI999356
aI1545059
aI1092663
aI362096
aI911453
aI399393
aI309886585
aI1130461
aI228656
aI213071
aI1798780
aI87410
aI1034395
aI762135
ag233
aI4677574
aI1934359
aI84992
aI189583
ag233
aI360300
aI55097
aI1729541
aI257817
aI4046157
aI6680544
ag233
aI1599641
ag233
aI953136
aI3285
aI1624396
ag233
aI2604490
aI1465734
aI765313
ag233
ag233
ag233
aI825464
ag233
aI2542813
ag233
ag233
ag233
ag233
aI5127155
ag233
ag233
aI651850
aI117551
ag233
aI17378
aI2291113
aI8831913
aI2027865
aI1550019
aI8191755
ag233
aI765920
aI371750
aI1451869
aI601438
aI4890344
aI940257
ag233
aI664461
aI1324578
aI343434
aI10433518
aI176378
aI83237
aI636246
aI1753766
aI2218275
aI9803
aI384728
aI436515
ag233
ag233
aI608750
aI5538001
ag233
ag233
ag233
aI187500
ag233
aI30766064
aI5210569
aI754966
aI2282768
aI2165172
aI185063
aI431750
aI850010
aI2022048
ag233
aI81042
aI671737
ag233
aI4158995
aI34348384
ag233
aI412878
aI850477
aI2549361
ag233
aI372205
aI2070306
aI664375
aI506765
aI1623010
aI757301
aI1104054
ag233
ag233
ag233
aI493489
aI59539
ag233
aI1056320
aI400478
ag233
aI1637034
aI5266578
aI15364167
ag233
aI28798
aI880290
ag233
ag233
aI886231
aI7509039
aI4160672
aI19794175
aI1635238
ag233
aI759557
aI1441898
aI607837
aI281073
aI1624396
aI1426469
aI1835558
aI19250000
ag233
aI1362375
ag233
aI3181250
ag233
aI4452476
aI591250
aI311764000
ag233
ag233
ag233
aI4346544
aI1030329
aI1668260
ag233
aI98718
aI3282960
aI1297049
ag233
ag233
aI139130
aI8308552
aI192758
aI4175000
ag233
ag233
aI1200000
aI400000
ag233
aI700000
aI5249999
ag233
ag233
aI250000
ag233
aI1000000
aI850000
ag233
aI1350000
ag233
aI500000
aI750000
aI900000
aI1250000
aI300000
aI1000000
ag233
ag233
ag233
aI1200000
ag233
aI800000
aI325000
aI600000
aI3000000
aI800000
aI425000
aI600000
aI1000000
aI70000
aI800000
ag233
aI750000
aI200000
aI350000
aI2500000
aI1300000
aI350000
ag233
ag233
aI2000000
ag233
aI509870
aI850000
ag233
ag233
ag233
aI600000
aI750000
ag233
ag233
aI1150000
aI1500000
ag233
ag233
ag233
aI700000
aI1700000
ag233
ag233
ag233
ag233
ag233
aI250000
ag233
aI400000
aI1000000
ag233
aI3100000
aI700000
aI800000
aI8000000
aI7000000
aI1000000
ag233
ag233
aI200000
ag233
ag233
ag233
ag233
aI900000
aI1100000
ag233
aI2600000
ag233
aI600000
ag233
ag233
ag233
aI325000
aI1100000
aI400000
ag233
aI750000
ag233
aI1000000
ag233
aI300000
aI400000
ag233
ag233
ag233
ag233
aI100000
aI1750000
aI700000
ag233
ag233
aI2000000
aI650000
aI600000
aI200000
ag233
aI1500000
aI5600000
aI500000
aI100000
aI700000
aI600000
ag233
ag233
aI300000
aI97343619
aI788750
ag233
ag233
aI850000
ag233
aI325000
ag233
ag233
aI3000000
aI450000
ag233
ag233
ag233
ag233
ag233
aI126027
ag233
aI1757552
aI3942714
aI145796
ag233
aI126027
aI157569
ag233
aI869220
aI659249
aI-2604490
aI378082
aI189041
ag233
aI252055
ag233
aI189041
aI417619
aI901657
aI126027
aI307301
aI2502063
aI32460
aI950730
aI662086
aI698242
aI386335
aI378082
aI207940
aI141833
aI1323148
aI1787380
aI315068
aI315068
aI126027
ag233
aI315068
ag233
aI189041
aI407503
aI1788391
aI1392142
aI1794412
aI956775
aI560170
ag233
aI4188667
ag233
aI235370
aI259907
aI264013
ag233
aI75838
aI393818
aI441096
ag233
ag233
aI524169
aI853064
aI2217299
aI151418
aI346663
aI480632
aI441096
ag233
aI2046079
aI363428
ag233
aI3654808
aI540672
aI44093
aI126027
aI4131594
aI1034346
aI466101
aI1248318
aI985032
aI1008149
aI14761694
aI360528
ag233
ag233
aI514847
ag233
aI153686
ag233
aI94556
aI441096
aI1478269
aI934065
aI558801
ag233
aI585062
ag233
aI462384
aI161602
aI208510
aI360528
aI196983
aI463261
aI969729
aI2041016
aI8453763
ag233
ag233
aI409554
aI47304
ag233
aI208809
aI381285
aI201483
aI2748364
aI283649
ag233
ag233
aI630137
aI379164
aI213063
aI869220
aI405999
aI1293424
aI6843672
aI511734
ag233
aI698920
aI563798
ag233
aI365320
aI576792
aI130322299
ag233
ag233
ag233
aI1552453
ag233
aI388167
aI384930
ag233
aI2796177
aI13847074
ag233
ag233
ag233
aI3576206
ag233
aI1407
ag233
aI465
ag233
ag233
ag233
aI2639
aI5521
ag233
ag233
aI233
aI463
aI1336
aI2326
ag233
aI1593
aI761
aI23
ag233
aI2333
aI2188
aI196
aI1585
ag233
ag233
ag233
aI1132
aI58
aI71
ag233
aI552
aI2097
aI1401
ag233
aI1902
ag233
aI114
aI772
ag233
aI599
ag233
ag233
aI1604
ag233
aI723
aI10
aI2
aI2979
ag233
ag233
aI178
ag233
aI23
ag233
aI874
ag233
ag233
ag233
aI1847
aI1035
aI471
aI50
aI571
ag233
aI900
ag233
aI1074
aI589
aI119
aI437
aI117
ag233
aI583
aI3639
ag233
aI3669
aI2271
ag233
aI3962
aI2411
aI2672
ag233
aI739
ag233
ag233
ag233
aI477
aI508
aI1469
aI2189
aI720
aI2228
ag233
aI702
ag233
aI22
aI127
ag233
aI114
aI395
ag233
aI856
ag233
ag233
ag233
aI728
aI742
aI3
aI12
ag233
aI1063
ag233
aI864
aI1258
ag233
ag233
aI1730
aI4527
aI2477
aI91
aI583
aI2103
aI2042
ag233
ag233
aI2565
aI300
ag233
aI73
aI379
ag233
aI41
ag233
ag233
aI215
ag233
aI337
ag233
ag233
aI3920
ag233
ag233
ag233
ag233
ag233
ag233
aI-126027
ag233
aI-560222
ag233
aI-82782
ag233
ag233
ag233
aI44093
ag233
ag233
aI15456290
ag233
ag233
ag233
ag233
ag233
ag233
ag233
ag233
ag233
aI-307301
ag233
aI-32460
ag233
aI-472568
ag233
ag233
ag233
ag233
ag233
ag233
aI-1787380
aI-315068
ag233
ag233
ag233
ag233
ag233
ag233
ag233
ag233
ag233
ag233
ag233
ag233
ag233
ag233
ag233
ag233
ag233
aI-72419
ag233
ag233
ag233
ag233
ag233
ag233
aI-329825
ag233
ag233
ag233
ag233
ag233
ag233
ag233
ag233
ag233
ag233
ag233
ag233
aI-44093
ag233
ag233
ag233
ag233
ag233
ag233
ag233
ag233
ag233
ag233
ag233
ag233
ag233
aI-153686
ag233
ag233
ag233
ag233
ag233
ag233
ag233
ag233
ag233
ag233
ag233
ag233
ag233
ag233
aI-94556
ag233
ag233
ag233
ag233
ag233
aI-409554
ag233
ag233
ag233
ag233
aI-140264
ag233
ag233
ag233
ag233
ag233
ag233
ag233
ag233
ag233
ag233
ag233
ag233
ag233
ag233
ag233
ag233
ag233
ag233
aI-7576788
ag233
ag233
ag233
ag233
ag233
ag233
ag233
ag233
ag233
ag233
ag233
ag233
ag233
ag233
ag233
aI1729541
aI257817
aI5243487
aI10623258
aI63014
aI1599641
aI126027
aI1110705
aI-44093
aI2493616
aI659249
aS'NaN'
p234
aI1843816
aI954354
ag233
aI252055
ag233
aI1014505
aI417619
aI3444470
aI126027
ag233
aI2502063
ag233
aI6077885
aI189518
aI698242
aI1038185
aI495633
aI207940
aI159211
aI3614261
aI8831913
aI2027865
aI1865087
aI8317782
ag233
aI1080988
aI371750
aI1640910
aI1008941
aI6678735
aI2332399
aI1794412
aI1621236
aI1884748
aI343434
aI14622185
aI176378
aI318607
aI896153
aI1945360
aI2218275
aI85641
aI778546
aI877611
ag233
ag233
aI803094
aI6391065
aI2217299
aI151418
aI346663
aI668132
aI441096
aI30766064
aI7256648
aI1118394
aI2282768
aI5819980
aI725735
aI431750
aI976037
aI6153642
aI1034346
aI547143
aI1920055
aI985032
aI5167144
aI49110078
aI360528
aI412878
aI850477
aI3064208
ag233
aI372205
aI2070306
aI758931
aI947861
aI3101279
aI1691366
aI1662855
ag233
aI585062
ag233
aI955873
aI221141
aI208510
aI1416848
aI597461
aI368705
aI2606763
aI7307594
aI23817930
ag233
aI28798
aI880290
aI47304
ag233
aI1095040
aI7890324
aI4221891
aI22542539
aI1918887
ag233
aI759557
aI2072035
aI987001
aI494136
aI2493616
aI1832468
aI3128982
aI26093672
aI511734
aI1362375
aI698920
aI3745048
ag233
aI4817796
aI1168042
aI434509511
ag233
ag233
ag233
aI5898997
aI1030329
aI2056427
aI384930
aI98718
aI6079137
aI15144123
ag233
ag233
aI139130
aI11884758
aI192758
aI13868
aI3486
aI56301
aI11200
aI129142
ag233
aI37172
aI17355
ag233
aI11892
aI59175
ag233
aI38559
aI84208
aI1279
aI65907
aI49288
aI600
aI9410
ag233
aI35818
ag233
aI30674
ag233
ag233
ag233
aI16514
ag233
aI27861
aI22344
aI41626
aI86174
aI51124
aI52255
aI3475
aI35812
aI28164
aI96268
ag233
aI25785
aI21530
aI78552
aI95924
aI55921
aI23870
ag233
ag233
aI86987
ag233
aI50080
aI48405
ag233
ag233
ag233
aI125978
ag233
ag233
ag233
aI76169
aI34039
aI475
ag233
ag233
aI48357
aI98849
aI77978
ag233
ag233
aI4994
aI28093
aI10181
ag233
aI83585
aI41953
aI116335
aI5774
aI127017
aI118134
aI49537
aI99832
ag233
ag233
ag233
aI57727
ag233
ag233
aI8211
ag233
aI228763
aI81364
ag233
aI137108
aI148
aI94299
aI2151
ag233
ag233
aI35018
ag233
aI57580
ag233
aI63791
aI18834
aI32047
aI27942
aI31653
aI43057
ag233
ag233
ag233
aI14689
aI8409
aI46950
aI33271
ag233
ag233
aI178979
aI137767
aI116337
aI22884
ag233
ag233
aI29336
aI16514
ag233
ag233
ag233
ag233
aI46145
ag233
aI5235198
aI53122
aI228656
aI103773
aI50936
aI33785
ag233
aI51870
ag233
aI57838
aI81353
aI1413
ag233
ag233
aI53947
aI55097
ag233
ag233
ag233
ag233
ag233
ag233
ag233
ag233
ag233
ag233
ag233
ag233
ag233
ag233
ag233
ag233
ag233
ag233
ag233
ag233
ag233
ag233
ag233
ag233
ag233
ag233
ag233
ag233
ag233
ag233
ag233
ag233
ag233
ag233
ag233
ag233
ag233
ag233
ag233
ag233
ag233
ag233
ag233
ag233
ag233
ag233
ag233
aI2000000
ag233
ag233
ag233
ag233
ag233
ag233
ag233
ag233
ag233
ag233
ag233
ag233
ag233
ag233
ag233
ag233
ag233
ag233
ag233
ag233
ag233
ag233
ag233
ag233
ag233
ag233
ag233
ag233
ag233
ag233
ag233
aI81525000
ag233
ag233
ag233
ag233
ag233
ag233
ag233
ag233
ag233
ag233
ag233
ag233
ag233
ag233
ag233
ag233
ag233
ag233
ag233
ag233
ag233
ag233
ag233
ag233
ag233
aI400000
ag233
ag233
ag233
ag233
ag233
ag233
ag233
ag233
ag233
ag233
ag233
ag233
ag233
ag233
ag233
ag233
ag233
ag233
ag233
ag233
ag233
ag233
ag233
ag233
aI83925000
ag233
ag233
ag233
ag233
ag233
ag233
ag233
ag233
ag233
ag233
ag233
ag233
ag233
ag233
ag233
aI2195
ag233
aI29
ag233
ag233
ag233
aI4343
aI484
ag233
ag233
aI59
aI29
aI40
aI14
ag233
aI27
aI41
aI125
ag233
aI1053
aI144
aI15
aI49
ag233
ag233
ag233
aI40
aI12
aI33
ag233
aI74
aI3069
aI909
ag233
aI63
ag233
aI14
aI22
ag233
aI12
ag233
ag233
aI75
ag233
aI16
aI36
aI13
aI21
ag233
ag233
aI44
ag233
aI12
ag233
aI16
ag233
ag233
ag233
aI1941
aI32
aI19
aI12
aI1061
ag233
aI27
ag233
aI1073
aI34
aI17
aI19
aI56
ag233
aI14368
aI6759
ag233
aI1728
aI61
ag233
aI2585
aI36
aI63
ag233
aI26
ag233
ag233
ag233
aI230
aI215
aI49
aI2742
aI13
aI48
ag233
aI29
ag233
aI28
aI19
ag233
aI16
aI45
ag233
aI52
ag233
ag233
ag233
aI67
aI222
aI16
aI26
ag233
aI221
ag233
aI18
aI82
ag233
ag233
aI2681
aI1215
aI136
aI39
aI25
aI92
aI108
ag233
ag233
aI38
aI29
ag233
aI41
aI19
ag233
aI18
ag233
ag233
aI146
ag233
aI30
ag233
ag233
aI556
ag233
ag233
ag233
ag233
ag233
ag233
aI152
ag233
aI864523
aI2660303
aI69
aI874
aI566
aI210698
ag233
ag233
aI427316
aI137864
aI425688
aI272
ag233
aI1621
ag233
aI1215
aI150656
aI400572
aI486
aI540
aI307895
ag233
ag233
ag233
aI101740
ag233
aI494
aI713
aI25553
aI1661
aI7482
aI1105
aI473
aI374689
aI774
aI891
ag233
aI1568
aI53775
aI12961
aI401481
aI277464
aI285414
ag233
ag233
aI7427621
ag233
aI76547
aI60814
ag233
ag233
ag233
aI200308
aI819288
ag233
aI680833
aI52382
aI11350
ag233
ag233
ag233
aI416441
aI1936
aI2856
ag233
ag233
ag233
aI1553729
aI2435
ag233
aI4669
aI1231
aI465357
aI93925
aI150458
aI907502
aI1552
aI10359729
aI3083
ag233
ag233
aI2630
ag233
ag233
aI2818454
ag233
aI51587
aI540
ag233
aI297353
ag233
aI1740
ag233
ag233
ag233
aI1411
aI947
aI330
ag233
aI972
aI176
aI1829457
ag233
ag233
aI778
ag233
ag233
ag233
ag233
aI202052
aI174839
aI1950
ag233
ag233
aI1191
aI705
aI2401
aI1573324
ag233
aI1852186
aI22122
aI356071
aI162
aI111122
ag233
aI362096
aI426629
aI152055
aI42667589
ag233
ag233
ag233
aI2
ag233
aI1425
aI401130
ag233
aI301026
aI1085463
ag233
aI189583
ag233
aI147950
ag233
aI65
ag233
aI0
ag233
ag233
ag233
aI386
aI108
ag233
ag233
aI0
aI1
aI8
aI2
ag233
aI15
aI1
aI0
ag233
aI71
aI25
aI7
aI12
ag233
ag233
ag233
aI11
aI0
aI4
ag233
aI4
aI609
aI20
ag233
aI14
ag233
aI3
aI11
ag233
aI3
ag233
ag233
aI37
ag233
aI8
aI0
aI0
aI6
ag233
ag233
aI27
ag233
aI0
ag233
aI6
ag233
ag233
ag233
aI61
aI21
aI7
aI0
aI38
ag233
aI1
ag233
aI15
aI5
aI17
aI5
aI19
ag233
aI171
aI387
ag233
aI194
aI15
ag233
aI411
aI16
aI14
ag233
aI0
ag233
ag233
ag233
aI0
aI2
aI0
aI194
aI1
aI26
ag233
aI1
ag233
aI0
aI0
ag233
aI0
aI2
ag233
aI15
ag233
ag233
ag233
aI0
aI48
aI1
aI0
ag233
aI49
ag233
aI4
aI48
ag233
ag233
aI83
aI65
aI6
aI14
aI18
aI23
aI30
ag233
ag233
aI13
aI0
ag233
aI0
aI11
ag233
aI0
ag233
ag233
aI0
ag233
aI7
ag233
ag233
aI24
ag233
ag233
ag233
ag233
ag233
ag233
ag233
ag233
ag233
ag233
ag233
ag233
ag233
ag233
aI3285
ag233
ag233
aI137864
ag233
ag233
aI113784
ag233
ag233
ag233
ag233
ag233
ag233
ag233
ag233
aI98784
ag233
ag233
ag233
ag233
ag233
ag233
ag233
ag233
ag233
ag233
ag233
ag233
ag233
ag233
aI102492
ag233
ag233
ag233
ag233
ag233
ag233
ag233
ag233
ag233
ag233
ag233
ag233
ag233
ag233
ag233
ag233
ag233
aI119292
ag233
ag233
ag233
ag233
ag233
ag233
ag233
ag233
ag233
ag233
ag233
ag233
ag233
ag233
aI108750
ag233
ag233
ag233
ag233
ag233
ag233
ag233
ag233
ag233
aI112492
ag233
ag233
ag233
ag233
ag233
ag233
ag233
ag233
ag233
ag233
aI103750
ag233
aI38346
ag233
ag233
ag233
ag233
ag233
ag233
ag233
ag233
ag233
aI101250
ag233
ag233
ag233
aI17500
ag233
ag233
ag233
ag233
ag233
aI125034
ag233
ag233
ag233
ag233
ag233
ag233
ag233
ag233
ag233
ag233
ag233
ag233
ag233
ag233
ag233
aI1398517
ag233
aI36666
aI109298
ag233
ag233
ag233
ag233
ag233
ag233
ag233
aI108579
ag233
ag233
ag233
ag233
aI-3081055
ag233
aI-5104
aI-1386055
aI-201641
ag233
ag233
aI-2334434
ag233
ag233
aI-485813
ag233
ag233
ag233
aI-113784
aI-833
ag233
ag233
aI-75000
aI-694862
aI-262500
aI-159792
aI-235000
aI-98784
ag233
ag233
aI-144062
ag233
aI-41250
ag233
ag233
ag233
aI-1284000
aI-775241
ag233
ag233
ag233
aI-300000
aI-25000
ag233
ag233
aI-400729
ag233
aI-1386055
ag233
ag233
ag233
aI-3367011
ag233
aI-1042
ag233
ag233
ag233
ag233
ag233
ag233
ag233
ag233
aI-934484
aI-3117011
ag233
ag233
ag233
aI-280000
ag233
ag233
ag233
ag233
ag233
ag233
ag233
aI-25000
ag233
ag233
aI-51042
ag233
ag233
ag233
ag233
aI-300000
ag233
aI-25000
ag233
ag233
ag233
ag233
ag233
ag233
aI-125000
ag233
ag233
ag233
aI-103750
ag233
aI-38346
ag233
ag233
ag233
aI-719000
ag233
ag233
ag233
ag233
ag233
aI-101250
ag233
aI-33333
ag233
aI-17500
ag233
ag233
aI-200000
aI-3504386
aI-100000
aI-121284
ag233
ag233
ag233
ag233
aI-4167
ag233
ag233
ag233
ag233
ag233
ag233
ag233
ag233
ag233
aI-575000
aI-27992891
ag233
aI-36666
ag233
ag233
ag233
aI-583325
aI-10800
ag233
ag233
ag233
aI-25000
ag233
ag233
ag233
ag233
aI304805
ag233
ag233
aI1586055
ag233
aI93750
ag233
ag233
ag233
ag233
aI180250
ag233
aI369721
aI831809
ag233
aI974293
ag233
aI304805
aI175000
aI769862
aI375304
aI75000
aI350000
ag233
ag233
ag233
ag233
ag233
ag233
aI275000
aI335349
aI1294981
aI484000
aI415657
aI556416
aI694862
ag233
ag233
ag233
aI1105218
aI2234774
ag233
aI374347
aI1736055
aI556416
ag233
ag233
aI1617011
ag233
ag233
aI375304
ag233
aI461912
ag233
aI71023
aI304805
ag233
aI365625
aI983346
aI1617011
ag233
ag233
ag233
aI150000
aI69223
ag233
ag233
ag233
ag233
aI312500
ag233
ag233
aI323466
aI300000
ag233
ag233
aI300000
aI602671
aI2035380
aI3600000
aI1387399
ag233
ag233
aI175000
ag233
ag233
aI5145434
ag233
ag233
aI554422
ag233
aI694862
ag233
ag233
ag233
ag233
ag233
ag233
aI1725545
aI125000
ag233
aI100000
aI135836
ag233
ag233
ag233
ag233
ag233
ag233
ag233
ag233
aI156250
aI1617011
ag233
ag233
ag233
aI554422
ag233
aI422158
ag233
ag233
aI554422
aI1920000
ag233
aI554422
aI476451
ag233
ag233
aI200000
aI275000
aI48521928
ag233
ag233
ag233
aI540751
ag233
aI200000
aI256191
ag233
aI808346
ag233
ag233
ag233
ag233
ag233
ag233
aS'phillip.allen@enron.com'
p235
ag233
aS'james.bannantine@enron.com'
p236
ag233
aS'frank.bay@enron.com'
p237
ag233
aS'sally.beck@enron.com'
p238
aS'tim.belden@enron.com'
p239
ag233
aS'david.berberian@enron.com'
p240
aS'rick.bergsieker@enron.com'
p241
aS'sanjay.bhatnagar@enron.com'
p242
aS'philippe.bibi@enron.com'
p243
aS'jeremy.blachman@enron.com'
p244
ag233
aS'raymond.bowen@enron.com'
p245
aS'michael.brown@enron.com'
p246
aS'john.buchanan@enron.com'
p247
aS'bob.butts@enron.com'
p248
aS'rick.buy@enron.com'
p249
aS'christopher.calger@enron.com'
p250
aS'rebecca.carter@enron.com'
p251
aS'richard.causey@enron.com'
p252
ag233
aS'diomedes.christodoulou@enron.com'
p253
ag233
aS'wes.colwell@enron.com'
p254
aS'bill.cordes@enron.com'
p255
aS'chip.cox@enron.com'
p256
ag233
aS'joseph.deffner@enron.com'
p257
aS'david.delainey@enron.com'
p258
aS'james.derrick@enron.com'
p259
aS'timothy.detmering@enron.com'
p260
aS'janet.dietrich@enron.com'
p261
aS'richard.dimichele@enron.com'
p262
aS'keith.dodson@enron.com'
p263
aS'jeff.donahue@enron.com'
p264
ag233
aS'w.duran@enron.com'
p265
aS'john.echols@enron.com'
p266
aS'steven.elliott@enron.com'
p267
aS'jim.fallon@enron.com'
p268
aS'andrew.fastow@enron.com'
p269
aS'jay.fitzgerald@enron.com'
p270
aS'kulvinder.fowler@enron.com'
p271
aS'tracy.foy@enron.com'
p272
aS'mark.frevert@enron.com'
p273
ag233
ag233
aS'kevin.garland@enron.com'
p274
ag233
aS'dana.gibbs@enron.com'
p275
ag233
aS'ben.glisan@enron.com'
p276
aS'joe.gold@enron.com'
p277
ag233
ag233
aS'mark.haedicke@enron.com'
p278
aS'kevin.hannon@enron.com'
p279
aS'david.haug@enron.com'
p280
aS'robert.hayes@enron.com'
p281
aS'rod.hayslett@enron.com'
p282
aS'robert.hermann@enron.com'
p283
aS'gary.hickerson@enron.com'
p284
aS'joe.hirko@enron.com'
p285
aS'stanley.horton@enron.com'
p286
aS'james.hughes@enron.com'
p287
aS'gene.humphrey@enron.com'
p288
aS'larry.izzo@enron.com'
p289
aS'charlene.jackson@enron.com'
p290
ag233
aS'vince.kaminski@enron.com'
p291
aS'steven.kean@enron.com'
p292
aS'joe.kishkill@enron.com'
p293
aS'louise.kitchen@enron.com'
p294
aS'mark.koenig@enron.com'
p295
aS'michael.kopper@enron.com'
p296
aS'john.lavorato@enron.com'
p297
aS'kenneth.lay@enron.com'
p298
aS'dan.leff@enron.com'
p299
ag233
aS'richard.lewis@enron.com'
p300
aS'tod.lindholm@enron.com'
p301
ag233
ag233
aS'a..martin@enron.com'
p302
aS'danny.mccarty@enron.com'
p303
aS'george.mcclellan@enron.com'
p304
aS'mike.mcconnell@enron.com'
p305
aS'rebecca.mcdonald@enron.com'
p306
aS'jeffrey.mcmahon@enron.com'
p307
ag233
aS'mark.metts@enron.com'
p308
ag233
aS'rockford.meyer@enron.com'
p309
aS'michael.moran@enron.com'
p310
aS'kristina.mordaunt@enron.com'
p311
aS's..muller@enron.com'
p312
aS'julia.murray@enron.com'
p313
ag233
aS'cindy.olson@enron.com'
p314
aS'jere.overdyke@enron.com'
p315
aS'lou.pai@enron.com'
p316
ag233
aS'mark.pickering@enron.com'
p317
aS'greg.piper@enron.com'
p318
aS'jim.piro@enron.com'
p319
aS'ken.powers@enron.com'
p320
aS'james.prentice@enron.com'
p321
aS'brian.redmond@enron.com'
p322
ag233
aS'ken.rice@enron.com'
p323
aS'paula.rieker@enron.com'
p324
ag233
aS'matthew.scrimshaw@enron.com'
p325
aS'jeffrey.shankman@enron.com'
p326
aS'richard.shapiro@enron.com'
p327
aS'vicki.sharp@enron.com'
p328
aS'rex.shelby@enron.com'
p329
aS'jeffrey.sherrick@enron.com'
p330
aS'john.sherriff@enron.com'
p331
aS'jeff.skilling@enron.com'
p332
aS'frank.stabler@enron.com'
p333
ag233
aS'marty.sunde@enron.com'
p334
aS'mitchell.taylor@enron.com'
p335
ag233
aS'terence.thorn@enron.com'
p336
aS'elizabeth.tilney@enron.com'
p337
ag233
aS'adam.umanoff@enron.com'
p338
ag233
ag233
aS'rob.walls@enron.com'
p339
ag233
aS'george.wasaff@enron.com'
p340
aS'dick.westfahl@enron.com'
p341
ag233
aS'greg.whalley@enron.com'
p342
aS'thomas.white@enron.com'
p343
ag233
aS'john.wodraska@enron.com'
p344
ag233
aS'scott.yeager@enron.com'
p345
ag233
aI47
ag233
aI39
ag233
ag233
ag233
aI144
aI228
ag233
ag233
aI4
aI0
aI23
aI25
ag233
aI140
aI13
aI0
ag233
aI156
aI199
aI29
aI58
ag233
ag233
ag233
aI240
aI10
aI0
ag233
aI115
aI66
aI64
ag233
aI305
ag233
aI10
aI188
ag233
aI106
ag233
ag233
aI42
ag233
aI1
aI0
aI0
aI242
ag233
ag233
aI10
ag233
aI0
ag233
aI52
ag233
ag233
ag233
aI180
aI32
aI4
aI16
aI35
ag233
aI40
ag233
aI44
aI35
aI10
aI28
aI25
ag233
aI41
aI140
ag233
aI251
aI53
ag233
aI528
aI123
aI67
ag233
aI10
ag233
ag233
ag233
aI8
aI25
aI52
aI92
aI54
aI58
ag233
aI38
ag233
aI0
aI0
ag233
aI12
aI11
ag233
aI20
ag233
ag233
ag233
aI7
aI61
aI0
aI0
ag233
aI204
ag233
aI42
aI35
ag233
ag233
aI94
aI74
aI24
aI13
aI39
aI28
aI88
ag233
ag233
aI37
aI0
ag233
aI0
aI10
ag233
aI12
ag233
ag233
aI17
ag233
aI22
ag233
ag233
aI186
ag233
ag233
ag233
ag233
ag233
ag233
atp346
ba(lp347
g18
(g19
(dp348
g21
g22
(g23
(I0
tp349
g25
tp350
Rp351
(I1
(I1
tp352
g32
I00
(lp353
g51
atp354
bsg58
Nstp355
Rp356
ag18
(g19
(dp357
g21
g22
(g23
(I0
tp358
g25
tp359
Rp360
(I1
(I20
tp361
g32
I00
(lp362
g36
ag37
ag38
ag39
ag40
ag41
ag42
ag43
ag44
ag45
ag46
ag47
ag48
ag49
ag50
ag52
ag53
ag54
ag55
ag56
atp363
bsg58
Nstp364
Rp365
a(dp366
S'0.14.1'
p367
(dp368
S'axes'
p369
g17
sS'blocks'
p370
(lp371
(dp372
S'mgr_locs'
p373
g2
(S'SliceType'
p374
tp375
Rp376
(I15
I16
I1
tp377
Rp378
sS'values'
p379
g219
sa(dp380
g373
g22
(g23
(I0
tp381
g25
tp382
Rp383
(I1
(I20
tp384
g29
(S'i8'
p385
I0
I1
tp386
Rp387
(I3
S'<'
p388
NNNI-1
I-1
I0
tp389
bI00
S'\x00\x00\x00\x00\x00\x00\x00\x00\x01\x00\x00\x00\x00\x00\x00\x00\x02\x00\x00\x00\x00\x00\x00\x00\x03\x00\x00\x00\x00\x00\x00\x00\x04\x00\x00\x00\x00\x00\x00\x00\x05\x00\x00\x00\x00\x00\x00\x00\x06\x00\x00\x00\x00\x00\x00\x00\x07\x00\x00\x00\x00\x00\x00\x00\x08\x00\x00\x00\x00\x00\x00\x00\t\x00\x00\x00\x00\x00\x00\x00\n\x00\x00\x00\x00\x00\x00\x00\x0b\x00\x00\x00\x00\x00\x00\x00\x0c\x00\x00\x00\x00\x00\x00\x00\r\x00\x00\x00\x00\x00\x00\x00\x0e\x00\x00\x00\x00\x00\x00\x00\x10\x00\x00\x00\x00\x00\x00\x00\x11\x00\x00\x00\x00\x00\x00\x00\x12\x00\x00\x00\x00\x00\x00\x00\x13\x00\x00\x00\x00\x00\x00\x00\x14\x00\x00\x00\x00\x00\x00\x00'
p390
tp391
bsg379
g230
sasstp392
bsb.