ccollections
defaultdict
p0
(cdill.dill
_load_type
p1
(S'IntType'
p2
tp3
Rp4
tp5
Rp6
S'METTS MARK'
p7
I35
sS'BAXTER JOHN C'
p8
Fnan
sS'ELLIOTT STEVEN'
p9
F0.0
sS'CORDES WILLIAM R'
p10
I5
sS'HANNON KEVIN P'
p11
I35
sS'MORDAUNT KRISTINA M'
p12
I2
sS'MEYER ROCKFORD G'
p13
I27
sS'MCMAHON JEFFREY'
p14
I52
sS'HAEDICKE MARK E'
p15
I1374
sS'PIPER GREGORY F'
p16
I341
sS'HUMPHREY GENE E'
p17
I9
sS'NOLES JAMES L'
p18
Fnan
sS'BLACHMAN JEREMY M'
p19
I21
sS'SUNDE MARTIN'
p20
I49
sS'GIBBS DANA R'
p21
I25
sS'LOWRY CHARLES P'
p22
Fnan
sS'COLWELL WESLEY'
p23
I120
sS'MULLER MARK S'
p24
I22
sS'JACKSON CHARLENE R'
p25
I71
sS'WESTFAHL RICHARD K'
p26
F0.0
sS'WALTERS GARETH W'
p27
Fnan
sS'WALLS JR ROBERT H'
p28
I118
sS'KITCHEN LOUISE'
p29
I2761
sS'PRENTICE JAMES'
p30
I3
sS'PEREIRA PAULO V. FERRAZ'
p31
Fnan
sS'SHANKMAN JEFFREY A'
p32
I1213
sS'WODRASKA JOHN'
p33
F0.0
sS'BERGSIEKER RICHARD P'
p34
I24
sS'URQUHART JOHN A'
p35
Fnan
sS'BIBI PHILIPPE A'
p36
I22
sS'RIEKER PAULA H'
p37
I347
sS'WHALEY DAVID A'
p38
Fnan
sS'BECK SALLY W'
p39
I4411
sS'HAUG DAVID L'
p40
I7
sS'ECHOLS JOHN B'
p41
I6
sS'MENDELSOHN JOHN'
p42
Fnan
sS'HICKERSON GARY J'
p43
I28
sS'CLINE KENNETH W'
p44
Fnan
sS'RICE KENNETH D'
p45
I21
sS'HAYES ROBERT E'
p46
I15
sS'KOPPER MICHAEL J'
p47
F0.0
sS'LEFF DANIEL P'
p48
I124
sS'LAVORATO JOHN J'
p49
I2146
sS'BERBERIAN DAVID'
p50
I1
sS'DETMERING TIMOTHY J'
p51
I1
sS'WAKEHAM JOHN'
p52
Fnan
sS'POWERS WILLIAM'
p53
I230
sS'GOLD JOSEPH'
p54
I4
sS'BANNANTINE JAMES M'
p55
I5
sS'DUNCAN JOHN H'
p56
F0.0
sS'SHAPIRO RICHARD S'
p57
I3104
sS'SHERRIFF JOHN R'
p58
I177
sS'SHELBY REX'
p59
I81
sS'LEMAISTRE CHARLES'
p60
Fnan
sS'DEFFNER JOSEPH M'
p61
I86
sS'KISHKILL JOSEPH G'
p62
I4
sS'WHALLEY LAWRENCE G'
p63
I212
sS'PIRO JIM'
p64
I24
sS'MCCONNELL MICHAEL S'
p65
I1281
sS'DELAINEY DAVID W'
p66
I1553
sS'FASTOW ANDREW S'
p67
I18
sS'WROBEL BRUCE'
p68
Fnan
sS'LINDHOLM TOD A'
p69
I29
sS'MEYER JEROME J'
p70
Fnan
sS'LAY KENNETH L'
p71
I1163
sS'BUTTS ROBERT H'
p72
I2
sS'OLSON CINDY K'
p73
I130
sS'PICKERING MARK R'
p74
I90
sS'SULLIVAN-SHAKLOVITZ COLLEEN'
p75
Fnan
sS'GAHN ROBERT S'
p76
Fnan
sS'BADUM JAMES P'
p77
Fnan
sS'HERMANN ROBERT J'
p78
I67
sS'SCRIMSHAW MATTHEW'
p79
I8
sS'HUGHES JAMES A'
p80
I9
sS'HORTON STANLEY C'
p81
I641
sS'BOWEN JR RAYMOND M'
p82
I88
sS'GILLIS JOHN'
p83
Fnan
sS'FITZGERALD JAY L'
p84
I10
sS'MORAN MICHAEL P'
p85
I10
sS'REDMOND BRIAN L'
p86
I846
sS'BAZELIDES PHILIP J'
p87
Fnan
sS'BELDEN TIMOTHY N'
p88
I1556
sS'DIMICHELE RICHARD G'
p89
I5
sS'DURAN WILLIAM D'
p90
I11
sS'THORN TERENCE H'
p91
I3
sS'FOY JOE'
p92
I15
sS'CALGER CHRISTOPHER F'
p93
I251
sS'LEWIS RICHARD'
p94
I13
sS'KAMINSKI WINCENTY J'
p95
I4332
sS'LOCKHART EUGENE E'
p96
Fnan
sS'COX DAVID'
p97
I32
sS'OVERDYKE JR JERE C'
p98
I1
sS'STABLER FRANK'
p99
F0.0
sS'SKILLING JEFFREY K'
p100
I934
sS'BLAKE JR. NORMAN P'
p101
Fnan
sS'SHERRICK JEFFREY B'
p102
I32
sS'CHAN RONNIE'
p103
Fnan
sS'GRAY RODNEY'
p104
Fnan
sS'BELFER ROBERT'
p105
Fnan
sS'UMANOFF ADAM S'
p106
I24
sS'KEAN STEVEN J'
p107
I1675
sS'FOWLER PEGGY'
p108
I133
sS'WASAFF GEORGE'
p109
I55
sS'WHITE JR THOMAS E'
p110
F0.0
sS'CHRISTODOULOU DIOMEDES'
p111
I1
sS'ALLEN PHILLIP K'
p112
I740
sS'SHARP VICTORIA T'
p113
I200
sS'JAEDICKE ROBERT'
p114
Fnan
sS'WINOKUR JR. HERBERT S'
p115
Fnan
sS'BROWN MICHAEL'
p116
I30
sS'MCCLELLAN GEORGE'
p117
I87
sS'CARTER REBECCA C'
p118
I135
sS'REYNOLDS LAWRENCE'
p119
Fnan
sS'MCDONALD REBECCA'
p120
I4
sS'BHATNAGAR SANJAY'
p121
I5
sS'BUCHANAN HAROLD G'
p122
I1120
sS'YEAP SOON'
p123
Fnan
sS'MURRAY JULIA H'
p124
I106
sS'GARLAND C KEVIN'
p125
I68
sS'DODSON KEITH'
p126
I14
sS'YEAGER F SCOTT'
p127
F0.0
sS'HIRKO JOSEPH'
p128
F0.0
sS'DIETRICH JANET R'
p129
I88
sS'DERRICK JR. JAMES V'
p130
I763
sS'FREVERT MARK A'
p131
I97
sS'CUMBERLAND MICHAEL S'
p132
Fnan
sS'PAI LOU L'
p133
I15
sS'HAYSLETT RODERICK J'
p134
I1479
sS'BAY FRANKLIN R'
p135
I1
sS'MCCARTY DANNY J'
p136
I344
sS'FUGH JOHN L'
p137
Fnan
sS'FALLON JAMES B'
p138
I172
sS'KOENIG MARK E'
p139
I63
sS'SAVAGE FRANK'
p140
Fnan
sS'IZZO LAWRENCE L'
p141
I35
sS'TILNEY ELIZABETH A'
p142
I106
sS'GATHMANN WILLIAM D'
p143
Fnan
sS'MARTIN AMANDA K'
p144
I250
sS'BUY RICHARD B'
p145
I1011
sS'GRAMM WENDY L'
p146
Fnan
sS'CAUSEY RICHARD A'
p147
I194
sS'TAYLOR MITCHELL S'
p148
I39
sS'DONAHUE JR JEFFREY M'
p149
I34
sS'GLISAN JR BEN F'
p150
I17
s.