ccollections
defaultdict
p0
(cdill.dill
_load_type
p1
(S'IntType'
p2
tp3
Rp4
tp5
Rp6
S'METTS MARK'
p7
I9
sS'BAXTER JOHN C'
p8
Fnan
sS'ELLIOTT STEVEN'
p9
Fnan
sS'CORDES WILLIAM R'
p10
I5
sS'HANNON KEVIN P'
p11
I13
sS'MORDAUNT KRISTINA M'
p12
I3
sS'MEYER ROCKFORD G'
p13
Fnan
sS'MCMAHON JEFFREY'
p14
I29
sS'HAEDICKE MARK E'
p15
I40
sS'PIPER GREGORY F'
p16
I24
sS'HUMPHREY GENE E'
p17
I4
sS'NOLES JAMES L'
p18
Fnan
sS'BLACHMAN JEREMY M'
p19
I7
sS'SUNDE MARTIN'
p20
I12
sS'GIBBS DANA R'
p21
Fnan
sS'LOWRY CHARLES P'
p22
Fnan
sS'COLWELL WESLEY'
p23
I58
sS'MULLER MARK S'
p24
I4
sS'JACKSON CHARLENE R'
p25
I9
sS'WESTFAHL RICHARD K'
p26
I8
sS'WALTERS GARETH W'
p27
Fnan
sS'WALLS JR ROBERT H'
p28
I7
sS'KITCHEN LOUISE'
p29
I177
sS'PRENTICE JAMES'
p30
I4
sS'BELFER ROBERT'
p31
Fnan
sS'SHANKMAN JEFFREY A'
p32
I19
sS'WODRASKA JOHN'
p33
Fnan
sS'BERGSIEKER RICHARD P'
p34
I2
sS'URQUHART JOHN A'
p35
Fnan
sS'BIBI PHILIPPE A'
p36
I8
sS'PIRO JIM'
p37
Fnan
sS'RIEKER PAULA H'
p38
I9
sS'WHALEY DAVID A'
p39
Fnan
sS'BECK SALLY W'
p40
I30
sS'HAUG DAVID L'
p41
I1
sS'ECHOLS JOHN B'
p42
I1
sS'MENDELSOHN JOHN'
p43
Fnan
sS'HICKERSON GARY J'
p44
I12
sS'CLINE KENNETH W'
p45
Fnan
sS'RICE KENNETH D'
p46
I10
sS'HAYES ROBERT E'
p47
I5
sS'KOPPER MICHAEL J'
p48
I6
sS'LEFF DANIEL P'
p49
I22
sS'LAVORATO JOHN J'
p50
I164
sS'BERBERIAN DAVID'
p51
I3
sS'DETMERING TIMOTHY J'
p52
I3
sS'WAKEHAM JOHN'
p53
Fnan
sS'POWERS WILLIAM'
p54
Fnan
sS'GOLD JOSEPH'
p55
I7
sS'BANNANTINE JAMES M'
p56
I7
sS'DUNCAN JOHN H'
p57
I1
sS'SHAPIRO RICHARD S'
p58
I19
sS'SHERRIFF JOHN R'
p59
I9
sS'SHELBY REX'
p60
I4
sS'LEMAISTRE CHARLES'
p61
Fnan
sS'DEFFNER JOSEPH M'
p62
I21
sS'KISHKILL JOSEPH G'
p63
I11
sS'WHALLEY LAWRENCE G'
p64
I59
sS'HAYSLETT RODERICK J'
p65
I13
sS'MCCONNELL MICHAEL S'
p66
I19
sS'DELAINEY DAVID W'
p67
I18
sS'SULLIVAN-SHAKLOVITZ COLLEEN'
p68
Fnan
sS'WROBEL BRUCE'
p69
Fnan
sS'FOY JOE'
p70
Fnan
sS'MEYER JEROME J'
p71
Fnan
sS'LAY KENNETH L'
p72
I40
sS'BUTTS ROBERT H'
p73
I9
sS'OLSON CINDY K'
p74
I4
sS'MCDONALD REBECCA'
p75
I11
sS'CUMBERLAND MICHAEL S'
p76
Fnan
sS'GAHN ROBERT S'
p77
Fnan
sS'BADUM JAMES P'
p78
Fnan
sS'HERMANN ROBERT J'
p79
I7
sS'SCRIMSHAW MATTHEW'
p80
I13
sS'HUGHES JAMES A'
p81
I9
sS'HORTON STANLEY C'
p82
I15
sS'BOWEN JR RAYMOND M'
p83
I43
sS'GILLIS JOHN'
p84
Fnan
sS'FITZGERALD JAY L'
p85
I1
sS'MORAN MICHAEL P'
p86
Fnan
sS'REDMOND BRIAN L'
p87
I43
sS'BAZELIDES PHILIP J'
p88
Fnan
sS'BELDEN TIMOTHY N'
p89
I35
sS'DIMICHELE RICHARD G'
p90
Fnan
sS'DURAN WILLIAM D'
p91
I27
sS'THORN TERENCE H'
p92
Fnan
sS'LINDHOLM TOD A'
p93
Fnan
sS'FASTOW ANDREW S'
p94
I18
sS'CALGER CHRISTOPHER F'
p95
I44
sS'LEWIS RICHARD'
p96
I3
sS'KAMINSKI WINCENTY J'
p97
I7
sS'LOCKHART EUGENE E'
p98
Fnan
sS'COX DAVID'
p99
Fnan
sS'OVERDYKE JR JERE C'
p100
I8
sS'PEREIRA PAULO V. FERRAZ'
p101
Fnan
sS'STABLER FRANK'
p102
I2
sS'SKILLING JEFFREY K'
p103
I38
sS'BLAKE JR. NORMAN P'
p104
Fnan
sS'SHERRICK JEFFREY B'
p105
I11
sS'CHAN RONNIE'
p106
Fnan
sS'GRAY RODNEY'
p107
Fnan
sS'THE TRAVEL AGENCY IN THE PARK'
p108
Fnan
sS'UMANOFF ADAM S'
p109
I4
sS'KEAN STEVEN J'
p110
I27
sS'TOTAL'
p111
Fnan
sS'FOWLER PEGGY'
p112
Fnan
sS'WASAFF GEORGE'
p113
I10
sS'WHITE JR THOMAS E'
p114
Fnan
sS'CHRISTODOULOU DIOMEDES'
p115
Fnan
sS'ALLEN PHILLIP K'
p116
I10
sS'SHARP VICTORIA T'
p117
I10
sS'JAEDICKE ROBERT'
p118
Fnan
sS'WINOKUR JR. HERBERT S'
p119
Fnan
sS'BROWN MICHAEL'
p120
I6
sS'MCCLELLAN GEORGE'
p121
I13
sS'CARTER REBECCA C'
p122
I9
sS'REYNOLDS LAWRENCE'
p123
Fnan
sS'PICKERING MARK R'
p124
I1
sS'BHATNAGAR SANJAY'
p125
Fnan
sS'BUCHANAN HAROLD G'
p126
Fnan
sS'YEAP SOON'
p127
Fnan
sS'MURRAY JULIA H'
p128
I5
sS'GARLAND C KEVIN'
p129
I2
sS'DODSON KEITH'
p130
I5
sS'YEAGER F SCOTT'
p131
I4
sS'HIRKO JOSEPH'
p132
I2
sS'DIETRICH JANET R'
p133
I73
sS'DERRICK JR. JAMES V'
p134
I34
sS'FREVERT MARK A'
p135
I40
sS'PAI LOU L'
p136
I10
sS'BAY FRANKLIN R'
p137
I4
sS'MCCARTY DANNY J'
p138
I8
sS'FUGH JOHN L'
p139
Fnan
sS'FALLON JAMES B'
p140
I18
sS'KOENIG MARK E'
p141
I21
sS'SAVAGE FRANK'
p142
Fnan
sS'IZZO LAWRENCE L'
p143
I6
sS'TILNEY ELIZABETH A'
p144
I5
sS'GATHMANN WILLIAM D'
p145
Fnan
sS'MARTIN AMANDA K'
p146
I1
sS'BUY RICHARD B'
p147
I54
sS'GRAMM WENDY L'
p148
Fnan
sS'CAUSEY RICHARD A'
p149
I28
sS'TAYLOR MITCHELL S'
p150
Fnan
sS'DONAHUE JR JEFFREY M'
p151
I37
sS'GLISAN JR BEN F'
p152
I17
s.