ccollections
defaultdict
p0
(cdill.dill
_load_type
p1
(S'IntType'
p2
tp3
Rp4
tp5
Rp6
S'METTS MARK'
p7
I1
sS'BAXTER JOHN C'
p8
Fnan
sS'ELLIOTT STEVEN'
p9
F0.0
sS'CORDES WILLIAM R'
p10
F0.0
sS'HANNON KEVIN P'
p11
I19
sS'MORDAUNT KRISTINA M'
p12
I1
sS'URQUHART JOHN A'
p13
Fnan
sS'MCMAHON JEFFREY'
p14
I7
sS'HAEDICKE MARK E'
p15
I33
sS'PIPER GREGORY F'
p16
I17
sS'HUMPHREY GENE E'
p17
I9
sS'NOLES JAMES L'
p18
Fnan
sS'BLACHMAN JEREMY M'
p19
I2
sS'SUNDE MARTIN'
p20
I10
sS'GIBBS DANA R'
p21
F0.0
sS'LOWRY CHARLES P'
p22
Fnan
sS'COLWELL WESLEY'
p23
I2
sS'MULLER MARK S'
p24
F0.0
sS'JACKSON CHARLENE R'
p25
I8
sS'WESTFAHL RICHARD K'
p26
F0.0
sS'WALTERS GARETH W'
p27
Fnan
sS'WALLS JR ROBERT H'
p28
F0.0
sS'KITCHEN LOUISE'
p29
I92
sS'PRENTICE JAMES'
p30
I1
sS'PEREIRA PAULO V. FERRAZ'
p31
Fnan
sS'SHANKMAN JEFFREY A'
p32
I24
sS'WODRASKA JOHN'
p33
F0.0
sS'BERGSIEKER RICHARD P'
p34
F0.0
sS'MEYER ROCKFORD G'
p35
F0.0
sS'BIBI PHILIPPE A'
p36
I3
sS'PIRO JIM'
p37
I1
sS'RIEKER PAULA H'
p38
I88
sS'WHALEY DAVID A'
p39
Fnan
sS'BECK SALLY W'
p40
I122
sS'HAUG DAVID L'
p41
I3
sS'ECHOLS JOHN B'
p42
I1
sS'MENDELSOHN JOHN'
p43
Fnan
sS'HICKERSON GARY J'
p44
I2
sS'CLINE KENNETH W'
p45
Fnan
sS'RICE KENNETH D'
p46
I7
sS'HAYES ROBERT E'
p47
F0.0
sS'KOPPER MICHAEL J'
p48
F0.0
sS'LEFF DANIEL P'
p49
I9
sS'LAVORATO JOHN J'
p50
I172
sS'BERBERIAN DAVID'
p51
F0.0
sS'DETMERING TIMOTHY J'
p52
F0.0
sS'WAKEHAM JOHN'
p53
Fnan
sS'POWERS WILLIAM'
p54
F0.0
sS'GOLD JOSEPH'
p55
F0.0
sS'BANNANTINE JAMES M'
p56
F0.0
sS'DUNCAN JOHN H'
p57
F0.0
sS'SHAPIRO RICHARD S'
p58
I24
sS'SHERRIFF JOHN R'
p59
I34
sS'SHELBY REX'
p60
I10
sS'LEMAISTRE CHARLES'
p61
Fnan
sS'DEFFNER JOSEPH M'
p62
I4
sS'KISHKILL JOSEPH G'
p63
I1
sS'WHALLEY LAWRENCE G'
p64
I14
sS'MCCARTY DANNY J'
p65
I1
sS'MCCONNELL MICHAEL S'
p66
I48
sS'DELAINEY DAVID W'
p67
I165
sS'SULLIVAN-SHAKLOVITZ COLLEEN'
p68
Fnan
sS'WROBEL BRUCE'
p69
Fnan
sS'LINDHOLM TOD A'
p70
I1
sS'MEYER JEROME J'
p71
Fnan
sS'LAY KENNETH L'
p72
I28
sS'BUTTS ROBERT H'
p73
F0.0
sS'OLSON CINDY K'
p74
I23
sS'MCDONALD REBECCA'
p75
I2
sS'CUMBERLAND MICHAEL S'
p76
Fnan
sS'GAHN ROBERT S'
p77
Fnan
sS'BADUM JAMES P'
p78
Fnan
sS'HERMANN ROBERT J'
p79
F0.0
sS'SCRIMSHAW MATTHEW'
p80
I2
sS'HUGHES JAMES A'
p81
I2
sS'HORTON STANLEY C'
p82
I11
sS'BOWEN JR RAYMOND M'
p83
I4
sS'GILLIS JOHN'
p84
Fnan
sS'FITZGERALD JAY L'
p85
I4
sS'MORAN MICHAEL P'
p86
F0.0
sS'REDMOND BRIAN L'
p87
I37
sS'BAZELIDES PHILIP J'
p88
Fnan
sS'BELDEN TIMOTHY N'
p89
I5
sS'DURAN WILLIAM D'
p90
F0.0
sS'THORN TERENCE H'
p91
F0.0
sS'PICKERING MARK R'
p92
F0.0
sS'FASTOW ANDREW S'
p93
I3
sS'FOY JOE'
p94
F0.0
sS'CALGER CHRISTOPHER F'
p95
I10
sS'LEWIS RICHARD'
p96
F0.0
sS'KAMINSKI WINCENTY J'
p97
I29
sS'LOCKHART EUGENE E'
p98
Fnan
sS'COX DAVID'
p99
I2
sS'OVERDYKE JR JERE C'
p100
F0.0
sS'STABLER FRANK'
p101
F0.0
sS'SKILLING JEFFREY K'
p102
I30
sS'BLAKE JR. NORMAN P'
p103
Fnan
sS'SHERRICK JEFFREY B'
p104
I12
sS'CHAN RONNIE'
p105
Fnan
sS'GRAY RODNEY'
p106
Fnan
sS'BELFER ROBERT'
p107
Fnan
sS'UMANOFF ADAM S'
p108
F0.0
sS'KEAN STEVEN J'
p109
I102
sS'FOWLER PEGGY'
p110
F0.0
sS'WASAFF GEORGE'
p111
I8
sS'WHITE JR THOMAS E'
p112
F0.0
sS'CHRISTODOULOU DIOMEDES'
p113
I1
sS'ALLEN PHILLIP K'
p114
I12
sS'SHARP VICTORIA T'
p115
I2
sS'JAEDICKE ROBERT'
p116
Fnan
sS'WINOKUR JR. HERBERT S'
p117
Fnan
sS'BROWN MICHAEL'
p118
I1
sS'MCCLELLAN GEORGE'
p119
F0.0
sS'CARTER REBECCA C'
p120
I29
sS'REYNOLDS LAWRENCE'
p121
Fnan
sS'DIMICHELE RICHARD G'
p122
F0.0
sS'BHATNAGAR SANJAY'
p123
F0.0
sS'BUCHANAN HAROLD G'
p124
F0.0
sS'YEAP SOON'
p125
Fnan
sS'MURRAY JULIA H'
p126
I2
sS'GARLAND C KEVIN'
p127
I24
sS'DODSON KEITH'
p128
F0.0
sS'YEAGER F SCOTT'
p129
F0.0
sS'HIRKO JOSEPH'
p130
F0.0
sS'DIETRICH JANET R'
p131
I2
sS'DERRICK JR. JAMES V'
p132
I15
sS'FREVERT MARK A'
p133
I7
sS'PAI LOU L'
p134
I10
sS'BAY FRANKLIN R'
p135
F0.0
sS'HAYSLETT RODERICK J'
p136
I20
sS'FUGH JOHN L'
p137
Fnan
sS'FALLON JAMES B'
p138
I23
sS'KOENIG MARK E'
p139
I17
sS'SAVAGE FRANK'
p140
Fnan
sS'IZZO LAWRENCE L'
p141
I9
sS'TILNEY ELIZABETH A'
p142
I12
sS'GATHMANN WILLIAM D'
p143
Fnan
sS'MARTIN AMANDA K'
p144
F0.0
sS'BUY RICHARD B'
p145
I34
sS'GRAMM WENDY L'
p146
Fnan
sS'CAUSEY RICHARD A'
p147
I15
sS'TAYLOR MITCHELL S'
p148
F0.0
sS'DONAHUE JR JEFFREY M'
p149
I6
sS'GLISAN JR BEN F'
p150
I5
s.