ccollections
defaultdict
p0
(cdill.dill
_load_type
p1
(S'IntType'
p2
tp3
Rp4
tp5
Rp6
S'METTS MARK'
p7
I206
sS'BAXTER JOHN C'
p8
Fnan
sS'ELLIOTT STEVEN'
p9
I35
sS'CORDES WILLIAM R'
p10
I281
sS'HANNON KEVIN P'
p11
I263
sS'MORDAUNT KRISTINA M'
p12
I173
sS'MEYER ROCKFORD G'
p13
I65
sS'MCMAHON JEFFREY'
p14
I775
sS'HAEDICKE MARK E'
p15
I1229
sS'PIPER GREGORY F'
p16
I640
sS'HUMPHREY GENE E'
p17
I47
sS'NOLES JAMES L'
p18
Fnan
sS'BLACHMAN JEREMY M'
p19
I607
sS'SUNDE MARTIN'
p20
I545
sS'GIBBS DANA R'
p21
I88
sS'LOWRY CHARLES P'
p22
Fnan
sS'COLWELL WESLEY'
p23
I583
sS'MULLER MARK S'
p24
I81
sS'JACKSON CHARLENE R'
p25
I80
sS'WESTFAHL RICHARD K'
p26
I16
sS'WALTERS GARETH W'
p27
Fnan
sS'WALLS JR ROBERT H'
p28
I331
sS'KITCHEN LOUISE'
p29
I4612
sS'PRENTICE JAMES'
p30
I109
sS'PEREIRA PAULO V. FERRAZ'
p31
Fnan
sS'SHANKMAN JEFFREY A'
p32
I794
sS'WODRASKA JOHN'
p33
I24
sS'BERGSIEKER RICHARD P'
p34
I140
sS'URQUHART JOHN A'
p35
Fnan
sS'BIBI PHILIPPE A'
p36
I374
sS'PIRO JIM'
p37
I42
sS'RIEKER PAULA H'
p38
I448
sS'WHALEY DAVID A'
p39
Fnan
sS'BECK SALLY W'
p40
I2832
sS'HAUG DAVID L'
p41
I99
sS'ECHOLS JOHN B'
p42
I26
sS'MENDELSOHN JOHN'
p43
Fnan
sS'HICKERSON GARY J'
p44
I468
sS'CLINE KENNETH W'
p45
Fnan
sS'RICE KENNETH D'
p46
I241
sS'HAYES ROBERT E'
p47
I218
sS'KOPPER MICHAEL J'
p48
I73
sS'LEFF DANIEL P'
p49
I731
sS'LAVORATO JOHN J'
p50
I2739
sS'BERBERIAN DAVID'
p51
I51
sS'DETMERING TIMOTHY J'
p52
I68
sS'WAKEHAM JOHN'
p53
Fnan
sS'POWERS WILLIAM'
p54
I243
sS'GOLD JOSEPH'
p55
I360
sS'BANNANTINE JAMES M'
p56
I86
sS'DUNCAN JOHN H'
p57
I4
sS'SHAPIRO RICHARD S'
p58
I4733
sS'SHERRIFF JOHN R'
p59
I1016
sS'SHELBY REX'
p60
I108
sS'LEMAISTRE CHARLES'
p61
Fnan
sS'DEFFNER JOSEPH M'
p62
I277
sS'KISHKILL JOSEPH G'
p63
I125
sS'WHALLEY LAWRENCE G'
p64
I2035
sS'HAYSLETT RODERICK J'
p65
I1353
sS'MCCONNELL MICHAEL S'
p66
I1079
sS'DELAINEY DAVID W'
p67
I968
sS'SULLIVAN-SHAKLOVITZ COLLEEN'
p68
Fnan
sS'WROBEL BRUCE'
p69
Fnan
sS'LINDHOLM TOD A'
p70
I48
sS'MEYER JEROME J'
p71
Fnan
sS'LAY KENNETH L'
p72
I3307
sS'BUTTS ROBERT H'
p73
I123
sS'OLSON CINDY K'
p74
I365
sS'MCDONALD REBECCA'
p75
I194
sS'CUMBERLAND MICHAEL S'
p76
Fnan
sS'GAHN ROBERT S'
p77
Fnan
sS'BADUM JAMES P'
p78
Fnan
sS'HERMANN ROBERT J'
p79
I80
sS'SCRIMSHAW MATTHEW'
p80
I125
sS'CARTER REBECCA C'
p81
I81
sS'HORTON STANLEY C'
p82
I971
sS'BOWEN JR RAYMOND M'
p83
I680
sS'GILLIS JOHN'
p84
Fnan
sS'FITZGERALD JAY L'
p85
I253
sS'MORAN MICHAEL P'
p86
I200
sS'REDMOND BRIAN L'
p87
I604
sS'BAZELIDES PHILIP J'
p88
Fnan
sS'BELDEN TIMOTHY N'
p89
I2576
sS'DIMICHELE RICHARD G'
p90
I45
sS'DURAN WILLIAM D'
p91
I243
sS'THORN TERENCE H'
p92
I63
sS'FASTOW ANDREW S'
p93
I325
sS'FOY JOE'
p94
I18
sS'CALGER CHRISTOPHER F'
p95
I772
sS'LEWIS RICHARD'
p96
I315
sS'KAMINSKI WINCENTY J'
p97
I1557
sS'LOCKHART EUGENE E'
p98
Fnan
sS'COX DAVID'
p99
I55
sS'OVERDYKE JR JERE C'
p100
I116
sS'STABLER FRANK'
p101
I41
sS'SKILLING JEFFREY K'
p102
I1466
sS'BLAKE JR. NORMAN P'
p103
Fnan
sS'SHERRICK JEFFREY B'
p104
I139
sS'CHAN RONNIE'
p105
Fnan
sS'GRAY RODNEY'
p106
Fnan
sS'BELFER ROBERT'
p107
Fnan
sS'UMANOFF ADAM S'
p108
I51
sS'KEAN STEVEN J'
p109
I2680
sS'FOWLER PEGGY'
p110
I157
sS'WASAFF GEORGE'
p111
I151
sS'WHITE JR THOMAS E'
p112
I111
sS'CHRISTODOULOU DIOMEDES'
p113
I74
sS'ALLEN PHILLIP K'
p114
I735
sS'SHARP VICTORIA T'
p115
I884
sS'JAEDICKE ROBERT'
p116
Fnan
sS'WINOKUR JR. HERBERT S'
p117
Fnan
sS'BROWN MICHAEL'
p118
I484
sS'MCCLELLAN GEORGE'
p119
I542
sS'HUGHES JAMES A'
p120
I138
sS'REYNOLDS LAWRENCE'
p121
Fnan
sS'PICKERING MARK R'
p122
I376
sS'BHATNAGAR SANJAY'
p123
I78
sS'BUCHANAN HAROLD G'
p124
I707
sS'YEAP SOON'
p125
Fnan
sS'MURRAY JULIA H'
p126
I692
sS'GARLAND C KEVIN'
p127
I89
sS'DODSON KEITH'
p128
I75
sS'YEAGER F SCOTT'
p129
I31
sS'HIRKO JOSEPH'
p130
I38
sS'DIETRICH JANET R'
p131
I838
sS'DERRICK JR. JAMES V'
p132
I938
sS'FREVERT MARK A'
p133
I958
sS'PAI LOU L'
p134
I244
sS'BAY FRANKLIN R'
p135
I44
sS'MCCARTY DANNY J'
p136
I635
sS'FUGH JOHN L'
p137
Fnan
sS'FALLON JAMES B'
p138
I558
sS'KOENIG MARK E'
p139
I695
sS'SAVAGE FRANK'
p140
Fnan
sS'IZZO LAWRENCE L'
p141
I73
sS'TILNEY ELIZABETH A'
p142
I157
sS'GATHMANN WILLIAM D'
p143
Fnan
sS'MARTIN AMANDA K'
p144
I453
sS'BUY RICHARD B'
p145
I1529
sS'GRAMM WENDY L'
p146
Fnan
sS'CAUSEY RICHARD A'
p147
I618
sS'TAYLOR MITCHELL S'
p148
I108
sS'DONAHUE JR JEFFREY M'
p149
I277
sS'GLISAN JR BEN F'
p150
I270
s.