ccollections
defaultdict
p0
(cdill.dill
_load_type
p1
(S'IntType'
p2
tp3
Rp4
tp5
Rp6
S'METTS MARK'
p7
I167
sS'BAXTER JOHN C'
p8
Fnan
sS'ELLIOTT STEVEN'
p9
I4
sS'CORDES WILLIAM R'
p10
I21
sS'HANNON KEVIN P'
p11
I259
sS'MORDAUNT KRISTINA M'
p12
I35
sS'MEYER ROCKFORD G'
p13
I6
sS'MCMAHON JEFFREY'
p14
I729
sS'HAEDICKE MARK E'
p15
I436
sS'PIPER GREGORY F'
p16
I305
sS'HUMPHREY GENE E'
p17
I40
sS'NOLES JAMES L'
p18
Fnan
sS'BLACHMAN JEREMY M'
p19
I549
sS'SUNDE MARTIN'
p20
I547
sS'GIBBS DANA R'
p21
I16
sS'LOWRY CHARLES P'
p22
Fnan
sS'COLWELL WESLEY'
p23
I336
sS'MULLER MARK S'
p24
I52
sS'JACKSON CHARLENE R'
p25
I41
sS'WESTFAHL RICHARD K'
p26
I9
sS'WALTERS GARETH W'
p27
Fnan
sS'WALLS JR ROBERT H'
p28
I89
sS'KITCHEN LOUISE'
p29
I1303
sS'PRENTICE JAMES'
p30
I21
sS'PEREIRA PAULO V. FERRAZ'
p31
Fnan
sS'SHANKMAN JEFFREY A'
p32
I338
sS'WODRASKA JOHN'
p33
I3
sS'BERGSIEKER RICHARD P'
p34
I23
sS'URQUHART JOHN A'
p35
Fnan
sS'BIBI PHILIPPE A'
p36
I292
sS'PIRO JIM'
p37
I3
sS'RIEKER PAULA H'
p38
I401
sS'WHALEY DAVID A'
p39
Fnan
sS'BECK SALLY W'
p40
I872
sS'HAUG DAVID L'
p41
I78
sS'ECHOLS JOHN B'
p42
I23
sS'MENDELSOHN JOHN'
p43
Fnan
sS'HICKERSON GARY J'
p44
I195
sS'CLINE KENNETH W'
p45
Fnan
sS'RICE KENNETH D'
p46
I233
sS'HAYES ROBERT E'
p47
I13
sS'KOPPER MICHAEL J'
p48
I70
sS'LEFF DANIEL P'
p49
I691
sS'LAVORATO JOHN J'
p50
I1241
sS'BERBERIAN DAVID'
p51
I50
sS'DETMERING TIMOTHY J'
p52
I58
sS'WAKEHAM JOHN'
p53
Fnan
sS'POWERS WILLIAM'
p54
I3
sS'GOLD JOSEPH'
p55
I269
sS'BANNANTINE JAMES M'
p56
I62
sS'DUNCAN JOHN H'
p57
I3
sS'SHAPIRO RICHARD S'
p58
I1269
sS'SHERRIFF JOHN R'
p59
I583
sS'SHELBY REX'
p60
I45
sS'LEMAISTRE CHARLES'
p61
Fnan
sS'DEFFNER JOSEPH M'
p62
I191
sS'KISHKILL JOSEPH G'
p63
I72
sS'WHALLEY LAWRENCE G'
p64
I1200
sS'HAYSLETT RODERICK J'
p65
I185
sS'MCCONNELL MICHAEL S'
p66
I603
sS'DELAINEY DAVID W'
p67
I632
sS'SULLIVAN-SHAKLOVITZ COLLEEN'
p68
Fnan
sS'WROBEL BRUCE'
p69
Fnan
sS'LINDHOLM TOD A'
p70
I40
sS'MEYER JEROME J'
p71
Fnan
sS'LAY KENNETH L'
p72
I742
sS'BUTTS ROBERT H'
p73
I111
sS'OLSON CINDY K'
p74
I292
sS'MCDONALD REBECCA'
p75
I162
sS'CUMBERLAND MICHAEL S'
p76
Fnan
sS'GAHN ROBERT S'
p77
Fnan
sS'BADUM JAMES P'
p78
Fnan
sS'HERMANN ROBERT J'
p79
I79
sS'SCRIMSHAW MATTHEW'
p80
I105
sS'HUGHES JAMES A'
p81
I104
sS'HORTON STANLEY C'
p82
I341
sS'BOWEN JR RAYMOND M'
p83
I506
sS'GILLIS JOHN'
p84
Fnan
sS'FITZGERALD JAY L'
p85
I188
sS'MORAN MICHAEL P'
p86
I29
sS'REDMOND BRIAN L'
p87
I280
sS'BAZELIDES PHILIP J'
p88
Fnan
sS'BELDEN TIMOTHY N'
p89
I1062
sS'DIMICHELE RICHARD G'
p90
I26
sS'DURAN WILLIAM D'
p91
I148
sS'THORN TERENCE H'
p92
I12
sS'FASTOW ANDREW S'
p93
I321
sS'FOY JOE'
p94
I3
sS'CALGER CHRISTOPHER F'
p95
I661
sS'LEWIS RICHARD'
p96
I231
sS'KAMINSKI WINCENTY J'
p97
I202
sS'LOCKHART EUGENE E'
p98
Fnan
sS'COX DAVID'
p99
I24
sS'OVERDYKE JR JERE C'
p100
I72
sS'STABLER FRANK'
p101
I16
sS'SKILLING JEFFREY K'
p102
I587
sS'BLAKE JR. NORMAN P'
p103
Fnan
sS'SHERRICK JEFFREY B'
p104
I142
sS'CHAN RONNIE'
p105
Fnan
sS'GRAY RODNEY'
p106
Fnan
sS'BELFER ROBERT'
p107
Fnan
sS'UMANOFF ADAM S'
p108
I13
sS'KEAN STEVEN J'
p109
I962
sS'FOWLER PEGGY'
p110
I2
sS'WASAFF GEORGE'
p111
I124
sS'WHITE JR THOMAS E'
p112
I102
sS'CHRISTODOULOU DIOMEDES'
p113
I63
sS'ALLEN PHILLIP K'
p114
I402
sS'SHARP VICTORIA T'
p115
I637
sS'JAEDICKE ROBERT'
p116
Fnan
sS'WINOKUR JR. HERBERT S'
p117
Fnan
sS'BROWN MICHAEL'
p118
I182
sS'MCCLELLAN GEORGE'
p119
I328
sS'CARTER REBECCA C'
p120
I52
sS'REYNOLDS LAWRENCE'
p121
Fnan
sS'PICKERING MARK R'
p122
I214
sS'BHATNAGAR SANJAY'
p123
I68
sS'BUCHANAN HAROLD G'
p124
I7
sS'YEAP SOON'
p125
Fnan
sS'MURRAY JULIA H'
p126
I136
sS'GARLAND C KEVIN'
p127
I77
sS'DODSON KEITH'
p128
I40
sS'YEAGER F SCOTT'
p129
I31
sS'HIRKO JOSEPH'
p130
I39
sS'DIETRICH JANET R'
p131
I614
sS'DERRICK JR. JAMES V'
p132
I415
sS'FREVERT MARK A'
p133
I850
sS'PAI LOU L'
p134
I216
sS'BAY FRANKLIN R'
p135
I17
sS'MCCARTY DANNY J'
p136
I122
sS'FUGH JOHN L'
p137
Fnan
sS'FALLON JAMES B'
p138
I446
sS'KOENIG MARK E'
p139
I662
sS'SAVAGE FRANK'
p140
Fnan
sS'IZZO LAWRENCE L'
p141
I65
sS'TILNEY ELIZABETH A'
p142
I142
sS'GATHMANN WILLIAM D'
p143
Fnan
sS'MARTIN AMANDA K'
p144
I71
sS'BUY RICHARD B'
p145
I785
sS'GRAMM WENDY L'
p146
Fnan
sS'CAUSEY RICHARD A'
p147
I499
sS'TAYLOR MITCHELL S'
p148
I63
sS'DONAHUE JR JEFFREY M'
p149
I209
sS'GLISAN JR BEN F'
p150
I263
s.