ccopy_reg
_reconstructor
p0
(csklearn.svm.classes
SVC
p1
cdill.dill
_load_type
p2
(S'ObjectType'
p3
tp4
Rp5
Ntp6
Rp7
(dp8
S'_impl'
p9
S'c_svc'
p10
sS'kernel'
p11
S'linear'
p12
sS'C'
p13
F0.4
sS'verbose'
p14
I00
sS'probability'
p15
I00
sS'coef0'
p16
F0.0
sS'epsilon'
p17
F0.0
sS'max_iter'
p18
I-1
sS'decision_function_shape'
p19
S'ovr'
p20
sS'cache_size'
p21
I200
sS'random_state'
p22
NsS'_sklearn_version'
p23
S'0.19.0'
p24
sS'tol'
p25
F0.001
sS'degree'
p26
I3
sS'shrinking'
p27
I01
sS'nu'
p28
F0.0
sS'gamma'
p29
F0.05
sS'class_weight'
p30
(dp31
I0
I1
sI1
I6
ssb.