(dp0
S'METTS MARK'
p1
(dp2
S'to_messages'
p3
F-0.3803542644750168
sS'expenses'
p4
F1.249749688000921
sS'poi'
p5
I00
sS'deferred_income'
p6
F0.28870350450421833
sS'from_poi_to_this_person'
p7
F-0.20057757734143275
sS'shared_receipt_with_poi'
p8
F-0.2294595987069549
sS'from_messages'
p9
F-0.36032800973697604
sS'other'
p10
F-0.26304614527974896
sS'long_term_incentive'
p11
F-0.31357674154339876
sS'bonus'
p12
F-0.24040729909477945
sS'total_stock_value'
p13
F-0.3959941884181767
sS'word_feature_1'
p14
F-0.18109552853305397
sS'word_feature_2'
p15
F-0.2796533716237818
sS'word_feature_3'
p16
F-0.28601704679515044
sS'word_feature_4'
p17
F-0.12205387943887219
sS'from_this_person_to_poi'
p18
F-0.4514252106970024
sS'freq_change_sent'
p19
F0.4512999170745393
sS'restricted_stock'
p20
F-0.21197775731569865
sS'salary'
p21
F0.731533819458091
sS'freq_change_received'
p22
F-0.3544429474860666
sS'total_payments'
p23
F-0.13292182043996037
sS'exercised_stock_options'
p24
F-0.36581315719227353
sS'word_feature_5'
p25
F0.04988043465578662
ssS'BAXTER JOHN C'
p26
(dp27
g3
F-0.29355019876154415
sg4
F-0.8465999080000259
sg5
I00
sg6
F-1.76250278546647
sg7
F-0.25413093501020917
sg8
F-0.4029261204448398
sg9
F-0.3273656252008224
sg10
F2.0968901516704124
sg11
F1.7063181791634792
sg12
F0.2817065113955215
sg13
F1.242201021431819
sg14
F0.002777009344390764
sg15
F-0.02161130437974002
sg16
F-0.0008250356416201356
sg17
F0.19261367990991315
sg18
F-0.26229238798266996
sg19
F-0.13477425205459195
sg20
F1.4992233683627072
sg21
F0.058046532572581154
sg22
F-0.21771813593427283
sg23
F0.3906706580296486
sg24
F0.9344444261260313
sg25
F0.12220788861559659
ssS'ELLIOTT STEVEN'
p28
(dp29
g3
F-0.6093298690368092
sg4
F0.8524980112271093
sg5
I00
sg6
F-0.10126790436839457
sg7
F-0.5635586137767247
sg8
F-0.8042816738994406
sg9
F-0.3980633104562386
sg10
F-0.25308555935867894
sg11
F-0.34889053187193314
sg12
F-0.45795472013240385
sg13
F0.5984699482645746
sg14
F-0.0015388311171586743
sg15
F-0.027664876662691042
sg16
F0.011765900588778425
sg17
F0.08751640327522425
sg18
F-0.440961639020106
sg19
F-0.2507023797773177
sg20
F0.40128947209386295
sg21
F-0.5982087720724325
sg22
F-0.400389622537368
sg23
F-0.23026582385776584
sg24
F0.5549965766333507
sg25
F0.053436642313238206
ssS'CORDES WILLIAM R'
p30
(dp31
g3
F-0.2874555906242326
sg4
F-0.38796941938127166
sg5
I00
sg6
F0.35500939557442496
sg7
F-0.41982981371168404
sg8
F-0.7443309053210833
sg9
F-0.4029321660557592
sg10
F-0.2541451011791439
sg11
F-0.3254518016621904
sg12
F-0.33270241982841975
sg13
F-0.32204624716729247
sg14
F-0.1900120858879026
sg15
F-0.2796533716237818
sg16
F-0.34440008620012097
sg17
F-0.5744017769312368
sg18
F-0.46501796911551113
sg19
F-0.29892748361403776
sg20
F-0.31325742123045014
sg21
F-0.25733129665719257
sg22
F-0.3270516604362523
sg23
F-0.19468576777897906
sg24
F-0.3433876448992325
sg25
F0.4989667738721422
ssS'HANNON KEVIN P'
p32
(dp33
g3
F-0.30839050304131055
sg4
F-0.2704373979449634
sg5
I01
sg6
F-4.680851113680685
sg7
F-0.06902623551928216
sg8
F0.09497985477592008
sg9
F-0.36032800973697604
sg10
F-0.2545156015936708
sg11
F1.7552467627598731
sg12
F0.5427634166406701
sg13
F0.5515233040650047
sg14
F-0.3128459767528847
sg15
F-0.2796533716237818
sg16
F7.558582998383777
sg17
F-0.5335717008912347
sg18
F0.25071907211396116
sg19
F-0.23453028183819416
sg20
F-0.07539263054137399
sg21
F-0.10443911699734021
sg22
F-0.3977388528228698
sg23
F-0.22145358430177836
sg24
F0.6922728898156116
sg25
F-0.07303092050363623
ssS'MORDAUNT KRISTINA M'
p34
(dp35
g3
F-0.42876624943950986
sg4
F-0.24574003390346086
sg5
I00
sg6
F0.4178256788862896
sg7
F-0.5075307082597845
sg8
F-0.6949596841389065
sg9
F-0.40719258168763756
sg10
F-0.26333818990750335
sg11
F-0.39381336902436526
sg12
F-0.47970946223616656
sg13
F-0.4574460352101138
sg14
F-0.3128459767528847
sg15
F-0.2796533716237818
sg16
F-0.34440008620012097
sg17
F-0.7759488173949625
sg18
F-0.4514252106970024
sg19
F-0.26672888272611595
sg20
F-0.4038845440453703
sg21
F0.05798511164578016
sg22
F0.23402792913252443
sg23
F-0.1825389762647345
sg24
F-0.4169727286416403
sg25
F-0.7971735949277609
ssS'URQUHART JOHN A'
p36
(dp37
g3
F-0.2775446953226925
sg4
F4.639191711008404
sg5
I00
sg6
F0.512533167071118
sg7
F-0.20687313097019677
sg8
F-0.3773133074195591
sg9
F-0.3292044252511078
sg10
F-0.2566727420741671
sg11
F-0.4740389070015981
sg12
F-0.4058032477316959
sg13
F-0.37186927509009227
sg14
F0.02260586013890929
sg15
F-0.010997773969806909
sg16
F0.01756052592791802
sg17
F0.06827915980234515
sg18
F-0.25775907844707996
sg19
F-0.13576032859277026
sg20
F-0.3049469254115881
sg21
F-0.2953339455236634
sg22
F-0.210262480714415
sg23
F-0.2283270784814853
sg24
F-0.3806716533708447
sg25
F0.026160482565184575
ssS'MCMAHON JEFFREY'
p38
(dp39
g3
F0.36283512633125764
sg4
F2.3296980610884934
sg5
I00
sg6
F0.22934614795057717
sg7
F0.6325809208655216
sg8
F1.7524422801775665
sg9
F-0.3361856544896656
sg10
F-0.0006382773637631283
sg11
F0.29771205430824027
sg12
F1.4999720692062197
sg13
F-0.22010249136326218
sg14
F-0.3128459767528847
sg15
F-0.2796533716237818
sg16
F-0.32633224538702743
sg17
F1.0950313405539127
sg18
F-0.2173771164266813
sg19
F-0.4695800683200231
sg20
F-0.22536147092313655
sg21
F0.763336210444517
sg22
F-0.1494500895648757
sg23
F0.21494894226745834
sg24
F-0.2475392283357267
sg25
F1.2398387313563595
ssS'HORTON STANLEY C'
p40
(dp41
g3
F0.6179793714143986
sg4
F0.012326743187283282
sg5
I00
sg6
F-0.2667498057727946
sg7
F0.01867465902881841
sg8
F0.3841541502715264
sg9
F0.5016960864464028
sg10
F-0.22370111762284317
sg11
F0.0861121828680969
sg12
F0.09290994725046299
sg13
F0.6927831404267981
sg14
F-0.2766792367826542
sg15
F-0.2747407125887212
sg16
F-0.272183071125956
sg17
F-0.2643462134504728
sg18
F-0.061345053579800427
sg19
F0.2259097108590871
sg20
F0.5326181492985936
sg21
F0.11971245327313393
sg22
F-0.1688890674711955
sg23
F0.10411479331576626
sg24
F0.6228709412874633
sg25
F-0.599937426893903
ssS'PIPER GREGORY F'
p42
(dp43
g3
F0.18357993876002587
sg4
F-0.04293910486398201
sg5
I00
sg6
F0.5181525213342756
sg7
F0.41332868449527094
sg8
F0.25719958151735856
sg9
F0.07423438471461201
sg10
F-0.2639000873219974
sg11
F-0.31213589082274845
sg12
F-0.4144452359248787
sg13
F-0.34781410751383934
sg14
F-0.3040354856713365
sg15
F-0.2222952950421131
sg16
F-0.16746371882957678
sg17
F-0.5336355629149785
sg18
F0.1727030406905205
sg19
F-0.5146581095631135
sg20
F-0.3014240391714614
sg21
F-0.4197468569876574
sg22
F-0.44280193796933853
sg23
F-0.05553666877844211
sg24
F-0.29496787798039215
sg25
F-0.27146004395902534
ssS'HUMPHREY GENE E'
p44
(dp45
g3
F-0.5936286847240005
sg4
F-1.0031595006880474
sg5
I00
sg6
F0.030263899551937864
sg7
F-0.4636802609857343
sg8
F-0.677327105145272
sg9
F-0.3972516118799215
sg10
F-0.24499318701687353
sg11
F-0.0667351287628978
sg12
F-0.1511520325419061
sg13
F-0.1189350597725915
sg14
F-0.3128459767528847
sg15
F-0.2796533716237818
sg16
F-0.34440008620012097
sg17
F-0.6586135925839688
sg18
F-0.13936108500324088
sg19
F-0.29892748361403776
sg20
F-0.19163302136576915
sg21
F-0.872671595742198
sg22
F-0.3031947330057688
sg23
F0.10049219874226131
sg24
F0.0022990536813194767
sg25
F-0.2826437834691379
ssS'NOLES JAMES L'
p46
(dp47
g3
F-0.36895866568057795
sg4
F-0.354924694815209
sg5
I00
sg6
F0.38073294363502186
sg7
F-0.3176477393960839
sg8
F-0.5009665648672068
sg9
F-0.34667915408963684
sg10
F-0.2571409783339878
sg11
F-0.2987972941388087
sg12
F-0.30673156573040716
sg13
F-0.43130282365677086
sg14
F0.019432143829562862
sg15
F-0.018633968259326956
sg16
F-0.0024296387192068005
sg17
F0.003959355682407789
sg18
F-0.2885392118988507
sg19
F-0.1410795553338393
sg20
F-0.27405268595891585
sg21
F-0.1262465819774671
sg22
F-0.20438122745401077
sg23
F-0.16583457388174272
sg24
F-0.39009645308719865
sg25
F0.0877724572609875
ssS'BLACHMAN JEREMY M'
p48
(dp49
g3
F0.17180405052542
sg4
F0.9951826802963096
sg5
I00
sg6
F0.14462207755352102
sg7
F-0.3321289191635836
sg8
F1.1176694364067226
sg9
F-0.3802099493524082
sg10
F-0.26434925018413635
sg11
F0.5141684032478654
sg12
F-0.02285987805715433
sg13
F-0.33572714587030006
sg14
F-0.20306106941489466
sg15
F-0.2796533716237818
sg16
F-0.34440008620012097
sg17
F-0.19534555240672027
sg18
F-0.41241719498528223
sg19
F-0.6015943319605023
sg20
F-0.41380676788388393
sg21
F-0.06858976938967909
sg22
F-0.18125932613885357
sg23
F-0.023794193391445954
sg24
F-0.31933821391555006
sg25
F0.9270714410823009
ssS'SUNDE MARTIN'
p50
(dp51
g3
F0.07498008059643292
sg4
F-0.23723688840369037
sg5
I00
sg6
F0.31838122029393945
sg7
F-0.1128766827933324
sg8
F1.1106164048092695
sg9
F-0.34044607012154393
sg10
F-0.16595062712463945
sg11
F-0.04750505616699714
sg12
F-0.15338833067972923
sg13
F-0.3774129981123588
sg14
F-0.3128459767528847
sg15
F-0.2796533716237818
sg16
F-0.34440008620012097
sg17
F-0.719671391279853
sg18
F-0.10035306929152062
sg19
F0.9568179510149112
sg20
F-0.15395091660454366
sg21
F-0.0075783154371803635
sg22
F1.419805581418034
sg23
F-0.07758759294773822
sg24
F-0.344115867954099
sg25
F-0.04475912008830919
ssS'GIBBS DANA R'
p52
(dp53
g3
F-0.5399829716552378
sg4
F-0.3890396037415592
sg5
I00
sg6
F0.1099426617792183
sg7
F-0.4766783983706474
sg8
F-0.7619634843147177
sg9
F-0.37452939517657047
sg10
F-0.24795685819806645
sg11
F-0.07048517882198864
sg12
F-0.23552282904451877
sg13
F-0.12946007080732858
sg14
F-0.11773924352634811
sg15
F-0.2796533716237818
sg16
F-0.34440008620012097
sg17
F-0.3764392875106658
sg18
F-0.3978094584407393
sg19
F-0.29892748361403776
sg20
F-0.18761412798337343
sg21
F-0.16104097660857195
sg22
F-0.400389622537368
sg23
F-0.1438350640809986
sg24
F-0.011370776593136414
sg25
F-0.7971735949277609
ssS'LOWRY CHARLES P'
p54
(dp55
g3
F-0.22100919846734746
sg4
F-0.552767894563454
sg5
I00
sg6
F0.3911731064450341
sg7
F-0.17647235798946204
sg8
F-0.31565374049851197
sg9
F-0.2908193987451432
sg10
F-0.2612200456560817
sg11
F-0.41679442385595095
sg12
F-0.4386754626674156
sg13
F-0.43073163703773343
sg14
F0.005692444448659894
sg15
F-0.01892534002885405
sg16
F0.005206658974768925
sg17
F0.08464555913349835
sg18
F-0.18890152261002024
sg19
F-0.05951241431442958
sg20
F-0.4318251675865215
sg21
F-0.3361456131893169
sg22
F-0.18109892555784893
sg23
F-0.2141387262888123
sg24
F-0.4026607394536849
sg25
F0.05175413230446402
ssS'COLWELL WESLEY'
p56
(dp57
g3
F0.10899931327418523
sg4
F-0.7125429187083497
sg5
I01
sg6
F0.3314662092415175
sg7
F1.9480943390870293
sg8
F0.3665215712778921
sg9
F-0.2396162335004237
sg10
F-0.17427878122066298
sg11
F0.27793685363654885
sg12
F0.2817065113955215
sg13
F-0.3775236451202751
sg14
F-0.3128459767528847
sg15
F0.5019769980877362
sg16
F-0.34440008620012097
sg17
F-0.5543070089149748
sg18
F-0.41241719498528223
sg19
F-0.5726155911613727
sg20
F-0.15429645401080522
sg21
F0.20436482929983069
sg22
F-0.47902912406747994
sg23
F-0.0838529318682502
sg24
F-0.13961597148539973
sg25
F0.14382202694148916
ssS'MULLER MARK S'
p58
(dp59
g3
F-0.5465251317855747
sg4
F0.05244416430798642
sg5
I00
sg6
F-0.6378648142661996
sg7
F-0.4636802609857343
sg8
F-0.6350089155605491
sg9
F-0.37878981080844876
sg10
F-0.26375007047673754
sg11
F1.926793955292847
sg12
F0.1946875429804717
sg13
F-0.2602498932459876
sg14
F-0.3128459767528847
sg15
F-0.2796533716237818
sg16
F-0.34440008620012097
sg17
F-0.4395905154611101
sg18
F-0.3796437093968355
sg19
F-0.29892748361403776
sg20
F-0.32640975728266225
sg21
F-0.04737907600216449
sg22
F-0.4843306634964763
sg23
F0.1121544432400855
sg24
F-0.25765684851653536
sg25
F-0.497759652217968
ssS'JACKSON CHARLENE R'
p60
(dp61
g3
F-0.5504504278637768
sg4
F-0.8723063573956261
sg5
I00
sg6
F0.3562717319796523
sg7
F-0.24442802461548307
sg8
F-0.6738005893465451
sg9
F-0.3092030221544363
sg10
F-0.26242921209953834
sg11
F-0.38380406273856305
sg12
F-0.5449736885474541
sg13
F-0.3730368926296477
sg14
F0.799861247277196
sg15
F0.556556944940389
sg16
F0.07685729736469404
sg17
F0.8162336424840115
sg18
F-0.17836910071496107
sg19
F0.48027865787366886
sg20
F-0.2346007742242006
sg21
F0.20447402205858117
sg22
F-0.31203063205409604
sg23
F-0.19139598868954996
sg24
F-0.44232705017302315
sg25
F-0.5010727845675029
ssS'WESTFAHL RICHARD K'
p62
(dp63
g3
F-0.6341900775320894
sg4
F0.17938762577725667
sg5
I00
sg6
F0.5561425932249827
sg7
F-0.2882784718895333
sg8
F-0.786649094905806
sg9
F-0.40651725711787745
sg10
F0.09148183003583486
sg11
F-0.3956446679689463
sg12
F-0.3440136876339333
sg13
F-0.4286549656870904
sg14
F2.741337227434477
sg15
F-0.2796533716237818
sg16
F-0.34440008620012097
sg17
F-0.7759488173949625
sg18
F-0.43113166018636817
sg19
F-0.1637285812886798
sg20
F-0.31397346851038815
sg21
F-1.3297797820664132
sg22
F-0.31203063205409604
sg23
F-0.16723913656471828
sg24
F-0.4148397343441463
sg25
F0.7120881827257342
ssS'WALTERS GARETH W'
p64
(dp65
g3
F-0.45084053933665147
sg4
F-0.2768450899434752
sg5
I00
sg6
F0.37649587147184804
sg7
F-0.36285107197099
sg8
F-0.5844457830265628
sg9
F-0.37373433236674863
sg10
F-0.2590099803707861
sg11
F-0.47786096409201484
sg12
F-0.4868225245082015
sg13
F-0.3233283163327664
sg14
F0.0028972153158647886
sg15
F-0.03319657021103438
sg16
F-0.022514277806173013
sg17
F0.05867569807186082
sg18
F-0.3481209023276027
sg19
F-0.19254253166590807
sg20
F-0.28449283974555173
sg21
F-0.4560850944022526
sg22
F-0.2582624908199365
sg23
F-0.24450096244688166
sg24
F-0.2631658581557736
sg25
F0.08566250407118554
ssS'WALLS JR ROBERT H'
p66
(dp67
g3
F-0.22072555729479595
sg4
F0.15582548275911232
sg5
I00
sg6
F-0.8838425888970709
sg7
F-0.3321289191635836
sg8
F-0.5045278310076535
sg9
F-0.24245651058834272
sg10
F-0.2645889220670959
sg11
F0.05412654756888471
sg12
F-0.02285987805715433
sg13
F0.47121968770600353
sg14
F-0.27951737312106667
sg15
F-0.1611929624347086
sg16
F-0.2606618320761621
sg17
F-0.3313993165496359
sg18
F-0.20859303942384264
sg19
F-0.29892748361403776
sg20
F0.28104551256788707
sg21
F0.6721807305291289
sg22
F-0.3791834648213827
sg23
F-0.048534352405816036
sg24
F0.43973362246391673
sg25
F-0.3264980802395607
ssS'KITCHEN LOUISE'
p68
(dp69
g3
F5.384597242377879
sg4
F-0.9834823362831719
sg5
I00
sg6
F0.407560252633717
sg7
F7.210148011973057
sg8
F3.7766623486468114
sg9
F3.5862370039263034
sg10
F-0.18121595072188054
sg11
F-0.01068715297183743
sg12
F1.9350669112814713
sg13
F-0.4021824242488281
sg14
F-0.26939919247635197
sg15
F-0.11793700236527913
sg16
F-0.32940749318303925
sg17
F-0.42585313026037525
sg18
F3.0983042190695347
sg19
F0.5768744605374346
sg20
F-0.2726053021332763
sg21
F0.08766506838397242
sg22
F-0.463124505780491
sg23
F0.1429653910365063
sg24
F-0.46437517035628656
sg25
F-0.3253970612402069
ssS'CHAN RONNIE'
p70
(dp71
g3
F-0.4483915650578119
sg4
F-0.5476741685698889
sg5
I00
sg6
F0.4078037796967362
sg7
F-0.37259649441589743
sg8
F-0.5937049020876508
sg9
F-0.36417447440487355
sg10
F-0.2629998416435325
sg11
F-0.46153412231305285
sg12
F-0.46077214247512616
sg13
F-0.4393358494394522
sg14
F0.01751417528470475
sg15
F-0.013605165801042656
sg16
F0.026793725676529753
sg17
F0.07771612148330735
sg18
F-0.32077680674311915
sg19
F-0.15967367709021865
sg20
F-0.49360705196926585
sg21
F-0.39414597748727515
sg22
F-0.24488410022630186
sg23
F-0.21657425938049524
sg24
F-0.4294019880041772
sg25
F0.11784670037462719
ssS'PEREIRA PAULO V. FERRAZ'
p72
(dp73
g3
F-0.3229387125379561
sg4
F-0.4242472330430726
sg5
I00
sg6
F0.40364616565144773
sg7
F-0.2696633343748235
sg8
F-0.44545384809445615
sg9
F-0.32265503191601874
sg10
F-0.26169839047676324
sg11
F-0.586413135080557
sg12
F-0.5591754607515994
sg13
F-0.3956734566413933
sg14
F0.0084019152210815
sg15
F-0.03724164197505109
sg16
F0.004367216286457114
sg17
F0.04119858817814332
sg18
F-0.24191171660062946
sg19
F-0.13923227884904127
sg20
F-0.35610662107142527
sg21
F-0.600794702206404
sg22
F-0.22373654658154551
sg23
F-0.25131056081890063
sg24
F-0.3930419964476195
sg25
F0.1029715619462696
ssS'SHANKMAN JEFFREY A'
p74
(dp75
g3
F0.3837700387483367
sg4
F3.3859833826225216
sg5
I00
sg6
F0.06186646368446486
sg7
F0.19407644812501954
sg8
F0.3735746028753459
sg9
F1.3125951950472425
sg10
F-0.26353347810843336
sg11
F0.07573472260268302
sg12
F0.9778582587159205
sg13
F-0.1533258797124812
sg14
F-0.19503887473616924
sg15
F-0.24892305160364706
sg16
F-0.015104968523810401
sg17
F-0.4986234397764431
sg18
F0.4457591506725623
sg19
F1.980733459250823
sg20
F-0.1890056355055904
sg21
F0.31060938356521134
sg22
F3.2037735992752947
sg23
F0.09344739967312532
sg24
F-0.17593036940152645
sg25
F-0.5298557228311165
ssS'WODRASKA JOHN'
p76
(dp77
g3
F-0.6237226213235504
sg4
F-0.6892304260986845
sg5
I00
sg6
F0.4070731982664526
sg7
F-0.5757900207445232
sg8
F-0.8078081896981675
sg9
F-0.40324210671157745
sg10
F-0.0963028656102401
sg11
F-0.37213439261047965
sg12
F-0.4124749711977745
sg13
F-0.32124497457913664
sg14
F0.04577829657236832
sg15
F-0.006932899633554187
sg16
F0.02840659499048733
sg17
F0.09927157806823665
sg18
F-0.4514712159955355
sg19
F-0.2891299705529871
sg20
F-0.24937258685318053
sg21
F-0.38110640925201167
sg22
F-0.400389622537368
sg23
F-0.2328012736316484
sg24
F-0.3292439276461376
sg25
F0.06119403539462087
ssS'BERGSIEKER RICHARD P'
p78
(dp79
g3
F-0.4719445062997339
sg4
F0.3636718385690711
sg5
I00
sg6
F-0.2447173907549788
sg7
F-0.5513811555338348
sg8
F-0.7372778737236294
sg9
F-0.37594953372052986
sg10
F0.11472645198834688
sg11
F-0.5156758595600291
sg12
F-0.5449736885474541
sg13
F-0.3838871536448827
sg14
F-0.2704473052241642
sg15
F-0.17297074471682208
sg16
F-0.34440008620012097
sg17
F-0.4941442019784862
sg18
F-0.30861347387110555
sg19
F-0.29892748361403776
sg20
F-0.17416893200839959
sg21
F-0.4823211322997901
sg22
F5.652201225566758
sg23
F-0.1836465035979922
sg24
F-0.3283780982378698
sg25
F0.6213105969321197
ssS'MEYER ROCKFORD G'
p80
(dp81
g3
F-0.5700769082547876
sg4
F-0.15345484434425768
sg5
I00
sg6
F0.329555971160891
sg7
F-0.5376586762432972
sg8
F-0.7972286423019868
sg9
F-0.37168911808865157
sg10
F-0.24896382229537548
sg11
F-0.1959950322148876
sg12
F-0.16642624481020257
sg13
F-0.3354792508776377
sg14
F0.3270723147526673
sg15
F-0.2796533716237818
sg16
F-0.09066483144566405
sg17
F-0.49761539286141726
sg18
F-0.4009351248366128
sg19
F-0.29892748361403776
sg20
F-0.2744996421614109
sg21
F-0.0464086652578121
sg22
F-0.400389622537368
sg23
F-0.0428722448740138
sg24
F-0.3769535821651864
sg25
F0.6230495614585402
ssS'BIBI PHILIPPE A'
p82
(dp83
g3
F-0.16577141219996563
sg4
F-0.15641075293209605
sg5
I00
sg6
F0.2590888829807401
sg7
F-0.2882784718895333
sg8
F0.2113548761339086
sg9
F-0.37878981080844876
sg10
F0.11328131930146496
sg11
F-0.21620087369002497
sg12
F0.10766857456542069
sg13
F-0.19057034800108172
sg14
F-0.1061856230638269
sg15
F-0.2796533716237818
sg16
F0.00646826238631496
sg17
F0.3788574601962832
sg18
F-0.37340917927356204
sg19
F0.20981041041512596
sg20
F-0.31746349824207115
sg21
F-0.3069097899126402
sg22
F3.6420341920723227
sg23
F-0.02004312015086966
sg24
F-0.17087813002016786
sg25
F-0.46793324728135977
ssS'RIEKER PAULA H'
p84
(dp85
g3
F-0.06763901024491198
sg4
F-0.28981183674361044
sg5
I01
sg6
F0.4057536342469912
sg7
F-0.24442802461548307
sg8
F0.5957450981951405
sg9
F0.08275521597836864
sg10
F-0.26285973381522487
sg11
F0.4001757920189913
sg12
F-0.15338833067972923
sg13
F-0.1783190478074362
sg14
F-0.14357497617853568
sg15
F-0.2796533716237818
sg16
F-0.34440008620012097
sg17
F-0.3840956156618488
sg18
F2.9422721562226544
sg19
F-0.5146581095631135
sg20
F-0.36559053937116665
sg21
F-0.06411969082828203
sg22
F-0.28463934500428173
sg23
F-0.12865374079846784
sg24
F-0.13495034078968685
sg25
F-0.6110201557274964
ssS'WHALEY DAVID A'
p86
(dp87
g3
F-0.29158108746973277
sg4
F-0.5816600944877549
sg5
I00
sg6
F0.49003933175427083
sg7
F-0.23054202741592786
sg8
F-0.42545756642932553
sg9
F-0.3228762167682392
sg10
F-0.2622806241193337
sg11
F-0.5130586611751811
sg12
F-0.4902307524348719
sg13
F-0.47536366986078715
sg14
F0.03560310582991195
sg15
F-0.01621161386346458
sg16
F0.008974368882508839
sg17
F0.07167508919993526
sg18
F-0.2551778672109502
sg19
F-0.14826454397199373
sg20
F-0.4246374560987885
sg21
F-0.38768975631796254
sg22
F-0.2279664779976798
sg23
F-0.23040406043488393
sg24
F-0.4606285944498892
sg25
F0.054434706010618235
ssS'BECK SALLY W'
p88
(dp89
g3
F3.0529713719258003
sg4
F-0.1914007875853814
sg5
I00
sg6
F0.42825139892667996
sg7
F0.6764313681395719
sg8
F2.2567340393955124
sg9
F5.8755003367889165
sg10
F-0.26408827413380265
sg11
F-0.3881630148386919
sg12
F-0.15338833067972923
sg13
F-0.4709069454667034
sg14
F0.9855148973510913
sg15
F-0.17406754382637893
sg16
F-0.2984654791576159
sg17
F0.7448699419041858
sg18
F4.268544690421142
sg19
F-0.3375658046795439
sg20
F-0.44592136097855223
sg21
F-0.18608117780648584
sg22
F-0.3880193638697099
sg23
F-0.14354352514484536
sg24
F-0.4374896330982068
sg25
F-0.09134986782578568
ssS'HAUG DAVID L'
p90
(dp91
g3
F-0.5255902193684965
sg4
F-1.1171609185670623
sg5
I00
sg6
F0.43173470461613095
sg7
F-0.595231602807885
sg8
F-0.5433195047936495
sg9
F-0.4000918889678403
sg10
F-0.25994506843939025
sg11
F-0.6971222703193948
sg12
F-0.6869248755172013
sg13
F-0.1296193502759522
sg14
F-0.15351130031507637
sg15
F-0.2796533716237818
sg16
F-0.06316593524254069
sg17
F-0.7759488173949625
sg18
F-0.37340917927356204
sg19
F-0.24740972219336288
sg20
F0.6198790854345155
sg21
F-1.0103129995089062
sg22
F1.1724004080648724
sg23
F-0.25445576897260086
sg24
F-0.29820906738940095
sg25
F0.9738385398936473
ssS'ECHOLS JOHN B'
p92
(dp93
g3
F-0.6211057572714156
sg4
F-0.586003615304689
sg5
I00
sg6
F0.29008251961905845
sg7
F-0.595231602807885
sg8
F-0.7372778737236294
sg9
F-0.40151202751179976
sg10
F-0.21685604739160358
sg11
F2.7316735810909676
sg12
F-0.5884831727549791
sg13
F-0.32681875616361555
sg14
F-0.3128459767528847
sg15
F-0.2796533716237818
sg16
F-0.34440008620012097
sg17
F-0.7759488173949625
sg18
F-0.4514252106970024
sg19
F1.3110025607820504
sg20
F-0.3024693153075133
sg21
F-0.5210640880143703
sg22
F1.7202261490611583
sg23
F0.05378413430514285
sg24
F-0.35407288955827904
sg25
F-0.7971735949277609
ssS'MENDELSOHN JOHN'
p94
(dp95
g3
F-0.3853490109423936
sg4
F-1.1254101913367986
sg5
I00
sg6
F0.39943122846036044
sg7
F-0.3082442027071122
sg8
F-0.5028305127430331
sg9
F-0.3619403920771095
sg10
F-0.26377933171487244
sg11
F-0.7262847120928517
sg12
F-0.7202819947720089
sg13
F-0.4451027204172664
sg14
F0.0037016215875478545
sg15
F-0.018740210346212975
sg16
F0.0009235543186923456
sg17
F0.14909672102847446
sg18
F-0.3186747178569556
sg19
F-0.12184186850828269
sg20
F-0.41852206880773096
sg21
F-1.0899612229139712
sg22
F-0.20039160103573064
sg23
F-0.2544932132900094
sg24
F-0.43442761263447915
sg25
F0.023693974332373264
ssS'HICKERSON GARY J'
p96
(dp97
g3
F-0.04147036972356398
sg4
F1.364533147029359
sg5
I00
sg6
F0.3555660918435867
sg7
F-0.1128766827933324
sg8
F-0.13071715634260173
sg9
F-0.3702689795446921
sg10
F-0.26287216124619317
sg11
F-0.6911634500418921
sg12
F0.7168013534707709
sg13
F-0.41948888921713146
sg14
F-0.2810377581716373
sg15
F-0.13769162752583014
sg16
F-0.32238547370955484
sg17
F0.09866306317035312
sg18
F-0.41241719498528223
sg19
F-0.27960832308128464
sg20
F-0.28534890514740296
sg21
F-0.3194464835268185
sg22
F-0.39155372348904083
sg23
F-0.016126581960276755
sg24
F-0.37071404137768543
sg25
F-0.6405684845282903
ssS'CLINE KENNETH W'
p98
(dp99
g3
F-0.23640738935309627
sg4
F-0.5109836503942393
sg5
I00
sg6
F0.42477300548700847
sg7
F-0.2103997564333343
sg8
F-0.3256820486668385
sg9
F-0.3136824219660054
sg10
F-0.2559097720720215
sg11
F-0.4045128203233804
sg12
F-0.3891992814872736
sg13
F-0.4605454570011877
sg14
F-0.010396238315626695
sg15
F-0.03239403198907084
sg16
F-0.01163762416754743
sg17
F0.08665522740899065
sg18
F-0.22775563089827408
sg19
F-0.13843555811389305
sg20
F-0.17272307710933604
sg21
F-0.22434460644074264
sg22
F-0.2104023592706658
sg23
F-0.21236807605934038
sg24
F-0.4159654874849007
sg25
F0.07562460043967766
ssS'RICE KENNETH D'
p100
(dp101
g3
F-0.339792871666928
sg4
F0.0552701272234291
sg5
I01
sg6
F-5.333955631439652
sg7
F-0.20057757734143275
sg8
F0.0032904440090211207
sg9
F-0.3802099493524082
sg10
F-0.10939072576711151
sg11
F1.7552467627598731
sg12
F0.7603108376782951
sg13
F3.1873821116452477
sg14
F-0.20146511079127816
sg15
F1.5168692979235023
sg16
F-0.34440008620012097
sg17
F-0.7759488173949625
sg18
F-0.2173771164266813
sg19
F-0.16369335988476635
sg20
F0.8905322161962529
sg21
F1.1058465964588422
sg22
F-0.4162942408243569
sg23
F-0.1966775840906229
sg24
F3.7139880983361473
sg25
F-0.7971735949277609
ssS'HAYES ROBERT E'
p102
(dp103
g3
F-0.3698868082664776
sg4
F-0.9251645217976288
sg5
I00
sg6
F0.5023350139902799
sg7
F-0.41982981371168404
sg8
F-0.7725430317108984
sg9
F-0.38873078061616484
sg10
F-0.2631854566096543
sg11
F-0.6443846371726967
sg12
F-0.6322855489914448
sg13
F-0.4667632313398522
sg14
F-0.3128459767528847
sg15
F-0.2796533716237818
sg16
F-0.34440008620012097
sg17
F-0.7759488173949625
sg18
F-0.4448201123787196
sg19
F-0.29892748361403776
sg20
F-0.4329810360782647
sg21
F-0.760134494490296
sg22
F-0.4534050168273311
sg23
F-0.25359855747376225
sg24
F-0.4446348335717464
sg25
F-0.25980664865975794
ssS'KOPPER MICHAEL J'
p104
(dp105
g3
F-0.5596094520462486
sg4
F1.8510384233729762
sg5
I01
sg6
F0.38547988166529995
sg7
F-0.3759793664376338
sg8
F-0.5715316311834648
sg9
F-0.3926406162582409
sg10
F0.5409749067691102
sg11
F0.15199635944020523
sg12
F-0.06636936226467852
sg13
F-0.3307206135563485
sg14
F1.1602772052998886
sg15
F1.317774503699609
sg16
F1.3452260070744375
sg17
F0.41960857879366464
sg18
F-0.1331371562536021
sg19
F-0.2518710603257037
sg20
F-0.008136169730804995
sg21
F-0.2340236234458944
sg22
F0.10060585350278385
sg23
F0.04923676814940177
sg24
F-0.1429428728639849
sg25
F0.571614950685864
ssS'LEFF DANIEL P'
p106
(dp107
g3
F0.30395568515822574
sg4
F0.03546300780809628
sg5
I00
sg6
F0.29929411204100004
sg7
F0.32562778994716995
sg8
F1.6184346798259452
sg9
F-0.2339356793245861
sg10
F-0.2618539995804354
sg11
F1.3923255217489312
sg12
F0.10766857456542069
sg13
F-0.4326372787950191
sg14
F-0.3128459767528847
sg15
F-0.2796533716237818
sg16
F-0.33267856277463126
sg17
F-0.00944969446670615
sg18
F-0.13936108500324088
sg19
F-0.2924877634364534
sg20
F-0.32640975728266225
sg21
F0.10338882564421338
sg22
F-0.39067013358420805
sg23
F0.050566900232023676
sg24
F-0.3777748683514582
sg25
F-0.6826385141628719
ssS'CHRISTODOULOU DIOMEDES'
p108
(dp109
g3
F-0.5583010200201811
sg4
F-0.36486891550054595
sg5
I00
sg6
F-0.0876883382735292
sg7
F-0.3680070023935781
sg8
F-0.5962172417745532
sg9
F-0.40861272023159695
sg10
F-0.23982185002158113
sg11
F-0.15757512763528073
sg12
F-0.17118956913231548
sg13
F0.5004135253935358
sg14
F-0.3128459767528847
sg15
F-0.2796533716237818
sg16
F-0.34440008620012097
sg17
F3.20633466163985
sg18
F-0.4514252106970024
sg19
F-0.29892748361403776
sg20
F-0.02561791620513316
sg21
F-0.15026537441785978
sg22
F-0.400389622537368
sg23
F-0.13416060458083803
sg24
F0.6051906469529856
sg25
F-0.7971735949277609
ssS'BERBERIAN DAVID'
p110
(dp111
g3
F-0.588394956619731
sg4
F-0.8291427313741625
sg5
I00
sg6
F0.26092674876000765
sg7
F-0.5075307082597845
sg8
F-0.6420619471580029
sg9
F-0.40861272023159695
sg10
F-0.2491199977220564
sg11
F-0.3786355115459496
sg12
F-0.39104871275429437
sg13
F-0.08452547227236203
sg14
F-0.3128459767528847
sg15
F-0.2796533716237818
sg16
F-0.34440008620012097
sg17
F1.2894586137490922
sg18
F-0.46194645961177594
sg19
F-0.29892748361403776
sg20
F-0.06715885128537635
sg21
F-0.2867296031858457
sg22
F-0.3031947330057688
sg23
F-0.22834791904958424
sg24
F-0.13724839328896069
sg25
F-0.7971735949277609
ssS'DETMERING TIMOTHY J'
p112
(dp113
g3
F-0.5661516121765855
sg4
F0.18910007231043233
sg5
I00
sg6
F-0.7326857272917737
sg7
F-0.5075307082597845
sg8
F-0.6138498207681877
sg9
F-0.40861272023159695
sg10
F-0.26360981804152417
sg11
F-0.1435951295343252
sg12
F-0.39269049382111637
sg13
F-0.16053425484473324
sg14
F-0.3128459767528847
sg15
F-0.2796533716237818
sg16
F-0.34440008620012097
sg17
F-0.7759488173949625
sg18
F-0.4427893288213867
sg19
F-0.29892748361403776
sg20
F-0.34957809133673967
sg21
F-0.3282365006063292
sg22
F1.514349701235135
sg23
F-0.11657502846451227
sg24
F-0.051729767220944314
sg25
F-0.7971735949277609
ssS'WAKEHAM JOHN'
p114
(dp115
g3
F-0.39616514588822527
sg4
F1.488751554118599
sg5
I00
sg6
F0.3856696688442166
sg7
F-0.3355755540519968
sg8
F-0.5395572621243246
sg9
F-0.36028058952120684
sg10
F-0.25874257121749356
sg11
F-0.44095742830334544
sg12
F-0.3856494290891331
sg13
F-0.35577483898957096
sg14
F-0.01759130268519721
sg15
F-0.02612012849891896
sg16
F-0.016607131243879983
sg17
F0.04321957071728793
sg18
F-0.3205786091148719
sg19
F-0.16661762461711424
sg20
F-0.3050207119956218
sg21
F-0.3114403130505078
sg22
F-0.22017947395371493
sg23
F-0.2301116952607265
sg24
F-0.35251200649223285
sg25
F0.12333178781553149
ssS'POWERS WILLIAM'
p116
(dp117
g3
F-0.33325071153659086
sg4
F-0.5216132307645168
sg5
I00
sg6
F0.5448465615528689
sg7
F-0.5182459362437516
sg8
F-0.8078081896981675
sg9
F-0.08340099366488539
sg10
F-0.2553499346622745
sg11
F-0.40713195485457154
sg12
F-0.412276262315617
sg13
F-0.39770960778189773
sg14
F-0.3128459767528847
sg15
F-0.2796533716237818
sg16
F-0.34440008620012097
sg17
F-0.7759488173949625
sg18
F-0.3035718859170799
sg19
F-0.29892748361403776
sg20
F-0.3436333377898105
sg21
F-0.4249100724382576
sg22
F-0.400389622537368
sg23
F-0.21469999557354455
sg24
F-0.3993150398823743
sg25
F-0.7971735949277609
ssS'GOLD JOSEPH'
p118
(dp119
g3
F-0.17754730043457223
sg4
F-0.11300865397870297
sg5
I00
sg6
F0.38432851999782147
sg7
F-0.3321289191635836
sg8
F0.13024501276318975
sg9
F-0.40435230459971866
sg10
F0.46266966423802747
sg11
F-0.31880611767320566
sg12
F-0.10987884647220342
sg13
F-0.34825131007166843
sg14
F-0.3128459767528847
sg15
F-0.2796533716237818
sg16
F-0.26455852536385827
sg17
F-0.6267482944116191
sg18
F-0.4555674073229674
sg19
F-0.29892748361403776
sg20
F-0.28534890514740296
sg21
F0.09747876757678035
sg22
F-0.38890295377454265
sg23
F-0.008663253899923812
sg24
F-0.3890296975584361
sg25
F-0.7971735949277609
ssS'BANNANTINE JAMES M'
p120
(dp121
g3
F-0.5412914036813051
sg4
F0.29116905587725944
sg5
I00
sg6
F0.5657459061211557
sg7
F-0.3321289191635836
sg8
F-0.59974375757328
sg9
F-0.4029321660557592
sg10
F0.502823581370156
sg11
F-0.19649550095768015
sg12
F-0.1790778833710263
sg13
F0.364242961807368
sg14
F-0.28262856985598855
sg15
F-0.2796533716237818
sg16
F-0.34440008620012097
sg17
F-0.6698449064583444
sg18
F-0.39141393409856295
sg19
F-0.29892748361403776
sg20
F0.38557261653086966
sg21
F0.0009864915774052334
sg22
F0.5971833800187718
sg23
F-0.14959771017758589
sg24
F0.37606408768257565
sg25
F-0.4556332494195152
ssS'DUNCAN JOHN H'
p122
(dp123
g3
F-0.6498912618448981
sg4
F-0.7240226304249149
sg5
I00
sg6
F0.5322017499796073
sg7
F-0.595231602807885
sg8
F-0.8078081896981675
sg9
F-0.40933083447939544
sg10
F-0.2618703807296497
sg11
F-0.5497081159948044
sg12
F-0.5253090787016275
sg13
F-0.4308058912982083
sg14
F-0.008930011145690427
sg15
F-0.024921100848651543
sg16
F-0.004569827318895701
sg17
F0.05892249150143227
sg18
F-0.47287580006228713
sg19
F-0.22680273062095557
sg20
F-0.37275551478234964
sg21
F-0.5635797944504315
sg22
F-0.400389622537368
sg23
F-0.2456366588996577
sg24
F-0.4027571805058127
sg25
F-0.0007883516278814384
ssS'SHAPIRO RICHARD S'
p124
(dp125
g3
F5.661984831904165
sg4
F2.34632274229723
sg5
I00
sg6
F0.28141638468407854
sg7
F0.19407644812501954
sg8
F3.656760811490095
sg9
F3.9980771816745433
sg10
F-0.26396488749776054
sg11
F-0.33262745680596567
sg12
F-0.19689781488725414
sg13
F-0.33039928028409593
sg14
F-0.16558549415208101
sg15
F-0.23972506990513742
sg16
F-0.3025794368147793
sg17
F-0.5751475262874611
sg18
F0.4457591506725623
sg19
F-0.559736150806204
sg20
F-0.3169120653901901
sg21
F0.07151818918356674
sg22
F-0.46400809568532375
sg23
F-0.13341180280751697
sg24
F-0.35271656803615664
sg25
F0.19752125709297455
ssS'SHERRIFF JOHN R'
p126
(dp127
g3
F0.6742419485352958
sg4
F0.2051463772930294
sg5
I00
sg6
F0.17120269003667093
sg7
F-0.24442802461548307
sg8
F1.2375709735634388
sg9
F-0.1529877823188981
sg10
F1.3795459922570452
sg11
F0.07573472260268302
sg12
F0.5427634166406701
sg13
F0.01916382983944668
sg14
F0.5136798134071816
sg15
F-0.2796533716237818
sg16
F-0.16351147169675662
sg17
F0.3554175718657652
sg18
F0.8358393077897639
sg19
F0.010179084910011165
sg20
F0.1490334051835148
sg21
F1.1614257106634471
sg22
F0.308249481138473
sg23
F0.2419291188266157
sg24
F-0.09249084285070074
sg25
F0.08396652867243355
ssS'SHELBY REX'
p128
(dp129
g3
F-0.51381433113389
sg4
F-0.5518460760685343
sg5
I01
sg6
F0.5673256645803753
sg7
F-0.4636802609857343
sg8
F-0.6596945261516375
sg9
F-0.29500163671484186
sg10
F1.1320075454945993
sg11
F-0.07837088113099355
sg12
F-0.5884831727549791
sg13
F-0.08452547227236203
sg14
F-0.3128459767528847
sg15
F-0.1271905224281387
sg16
F-0.3038903325760876
sg17
F-0.010174603882863759
sg18
F-0.10035306929152062
sg19
F-0.3504452450347126
sg20
F-0.06715885128537635
sg21
F-0.3190643088711876
sg22
F0.30648230132880744
sg23
F-0.025048062735859696
sg24
F-0.13724839328896069
sg25
F-0.22636203689359408
ssS'LEMAISTRE CHARLES'
p130
(dp131
g3
F-0.26288350354666606
sg4
F-0.7158455396162059
sg5
I00
sg6
F0.5322017499796073
sg7
F-0.21339799831204986
sg8
F-0.37031397606951977
sg9
F-0.31093875951370936
sg10
F-0.2589837737309821
sg11
F-0.5349533024680491
sg12
F-0.526054955903916
sg13
F-0.4240939589359881
sg14
F0.034349549318606426
sg15
F-0.009217346745543552
sg16
F0.03784819809770415
sg17
F0.0778743655310037
sg18
F-0.23745130286682026
sg19
F-0.16153807112736
sg20
F-0.3604867183419961
sg21
F-0.5114864469801251
sg22
F-0.27117164647755365
sg23
F-0.24449157274037556
sg24
F-0.3940397572268859
sg25
F0.0654019573747563
ssS'DEFFNER JOSEPH M'
p132
(dp133
g3
F-0.28614715859816503
sg4
F-0.07903913340677221
sg5
I00
sg6
F0.5093517670696573
sg7
F0.32562778994716995
sg8
F-0.14482321953750904
sg9
F-0.2879009439950447
sg10
F-0.24190797287635882
sg11
F-0.2705287350214362
sg12
F-0.24040729909477945
sg13
F-0.4654914435335212
sg14
F-0.2925748295490483
sg15
F0.0336000938984863
sg16
F-0.34440008620012097
sg17
F0.023543386360775773
sg18
F-0.33440116356184185
sg19
F-0.3085870638804143
sg20
F-0.4378659564897985
sg21
F-0.3581211937671771
sg22
F-0.4578229663514948
sg23
F-0.11610943643214831
sg24
F-0.4778692871533495
sg25
F-0.19970749242789326
ssS'KISHKILL JOSEPH G'
p134
(dp135
g3
F-0.4915709866907445
sg4
F1.805654809572502
sg5
I00
sg6
F0.4882955922474901
sg7
F-0.1567271300673825
sg8
F-0.564478599586011
sg9
F-0.40435230459971866
sg10
F0.14849444495006386
sg11
F-0.22111248633797742
sg12
F-0.2541036589894733
sg13
F-0.32267275729028827
sg14
F-0.3128459767528847
sg15
F-0.2796533716237818
sg16
F-0.34440008620012097
sg17
F0.1965492588740316
sg18
F-0.4514252106970024
sg19
F-0.2023316809502725
sg20
F0.01699632533172768
sg21
F-0.5756536428427877
sg22
F-0.40569116196636434
sg23
F-0.17379349523183316
sg24
F-0.31816899321681574
sg25
F-0.63129384175079
ssS'WHALLEY LAWRENCE G'
p136
(dp137
g3
F2.014076343228298
sg4
F0.32994316060840745
sg5
I00
sg6
F-0.20652070488791038
sg7
F2.0357952336351297
sg8
F3.4134312213779383
sg9
F-0.1089634874561555
sg10
F0.0026221479181275675
sg11
F0.4770831416855791
sg12
F1.84804794286642
sg13
F0.5006178470069742
sg14
F-0.2933155675480483
sg15
F-0.25507234343505863
sg16
F-0.34018979634683333
sg17
F-0.6741851536519419
sg18
F0.05567899355536021
sg19
F-0.27960832308128464
sg20
F0.9148997383284023
sg21
F1.7181995875382607
sg22
F-0.3332367897700813
sg23
F0.2811123640766275
sg24
F0.21429810601054777
sg25
F-0.3240129652207911
ssS'HAYSLETT RODERICK J'
p138
(dp139
g3
F1.116491973346072
sg4
F-0.5713028954064877
sg5
I00
sg6
F0.41280029222299225
sg7
F-0.06902623551928216
sg8
F-0.1659823143298703
sg9
F1.6946124633723327
sg10
F-0.25936872323709803
sg11
F-0.4041480979633872
sg12
F-0.4047555917419261
sg13
F-0.4348999937872918
sg14
F-0.23969436067153638
sg15
F-0.2295138594436746
sg16
F-0.258054671161806
sg17
F-0.46168737501896395
sg18
F0.28972708782568124
sg19
F-0.37620412574504997
sg20
F-0.3334759462764984
sg21
F-0.31867432805161666
sg22
F-0.40392398215669884
sg23
F-0.21294630564147154
sg24
F-0.40189757473409554
sg25
F-0.36178548413337397
ssS'PIRO JIM'
p140
(dp141
g3
F-0.5988624128282701
sg4
F-0.6071917111458995
sg5
I00
sg6
F0.5204023621680915
sg7
F-0.5601813588707155
sg8
F-0.8078081896981675
sg9
F-0.37594953372052986
sg10
F-0.26285315764867506
sg11
F-0.5085465905590618
sg12
F-0.5222359958491782
sg13
F-0.48375423809827
sg14
F0.48173694603074485
sg15
F-0.18877805951990462
sg16
F-0.17007873621631234
sg17
F-0.7759488173949625
sg18
F-0.4514252106970024
sg19
F0.6026333412477716
sg20
F-0.4860419232693379
sg21
F-0.5009788086750628
sg22
F-0.400389622537368
sg23
F-0.23077285748687837
sg24
F-0.46006036232929287
sg25
F0.26233564284281424
ssS'DELAINEY DAVID W'
p142
(dp143
g3
F0.6114372112840605
sg4
F1.0447792254501365
sg5
I01
sg6
F0.2882690487063705
sg7
F0.150226000850969
sg8
F1.4103702477010573
sg9
F1.7982825770813715
sg10
F-0.26311627149735567
sg11
F1.2462510341274282
sg12
F1.84804794286642
sg13
F0.09835950735369313
sg14
F10.985326910838394
sg15
F11.162368935705066
sg16
F6.355705497971862
sg17
F6.874707706745954
sg18
F5.984897381736829
sg19
F-0.4921190889415683
sg20
F0.1641820097022864
sg21
F0.7272684773193527
sg22
F-0.3986224427277026
sg23
F0.28917434318105306
sg24
F0.004067846164849945
sg25
F6.861999524952807
ssS'SULLIVAN-SHAKLOVITZ COLLEEN'
p144
(dp145
g3
F-0.2887254760160637
sg4
F-0.4476467036547149
sg5
I00
sg6
F0.17985266770923589
sg7
F-0.26265581578218133
sg8
F-0.40068881494966224
sg9
F-0.3254874432760799
sg10
F-0.26444689428460133
sg11
F0.07573472260268302
sg12
F-0.6755021411700288
sg13
F-0.269139678588509
sg14
F-0.02248982640938063
sg15
F-0.02023540357038842
sg16
F-0.01772551334719861
sg17
F0.13204112655492356
sg18
F-0.2550753302705799
sg19
F-0.10135393289295751
sg20
F-0.3279415520879376
sg21
F-0.6539107281306327
sg22
F-0.20658667664218294
sg23
F-0.14007528818561163
sg24
F-0.19278593377154443
sg25
F0.01003925558617869
ssS'WROBEL BRUCE'
p146
(dp147
g3
F-0.2563634334527779
sg4
F-0.5601704828608519
sg5
I00
sg6
F0.47410413847711225
sg7
F-0.2365404359228241
sg8
F-0.3841468896380268
sg9
F-0.30497265457958495
sg10
F-0.26030787830066376
sg11
F-0.4550987564610259
sg12
F-0.4309995723645376
sg13
F-0.4687685859612042
sg14
F0.024813829139499335
sg15
F-0.03522894110811931
sg16
F0.011387643181555027
sg17
F0.04890231397453252
sg18
F-0.217377560321904
sg19
F-0.13259218367351955
sg20
F-0.4008027345584228
sg21
F-0.2741017587952489
sg22
F-0.22378756480627143
sg23
F-0.2168447514811359
sg24
F-0.4520629333540908
sg25
F0.08152745624115691
ssS'LINDHOLM TOD A'
p148
(dp149
g3
F-0.5923202526979332
sg4
F0.32714294875078875
sg5
I00
sg6
F0.15466657590151786
sg7
F-0.37789641561192894
sg8
F-0.677327105145272
sg9
F-0.3688488410007327
sg10
F-0.2622561157396231
sg11
F-0.5239739298495065
sg12
F-0.5884831727549791
sg13
F0.00859296067900929
sg14
F-0.3128459767528847
sg15
F-0.2796533716237818
sg16
F-0.34440008620012097
sg17
F-0.7759488173949625
sg18
F-0.4514252106970024
sg19
F8.716680765004053
sg20
F-0.24776228383587118
sg21
F-0.15109172317399416
sg22
F-0.400389622537368
sg23
F-0.15421332346842034
sg24
F0.05880566776902004
sg25
F-0.7971735949277609
ssS'MEYER JEROME J'
p150
(dp151
g3
F-0.2767742846568244
sg4
F-1.0748802422304327
sg5
I00
sg6
F0.5097007292787074
sg7
F-0.25235331225269236
sg8
F-0.40439070283590733
sg9
F-0.31328443429262925
sg10
F-0.2630776195967125
sg11
F-0.6777186496306439
sg12
F-0.6719972330347203
sg13
F-0.43867959231837267
sg14
F-0.007339456544985517
sg15
F-0.031286912213895075
sg16
F-0.014294277266441457
sg17
F0.0976756009178467
sg18
F-0.23845406959949098
sg19
F-0.11526876457214656
sg20
F-0.40208705012821944
sg21
F-0.9080775836937459
sg22
F-0.22898633855011027
sg23
F-0.25426385253230516
sg24
F-0.4282267202602398
sg25
F0.014669746876486508
ssS'LAY KENNETH L'
p152
(dp153
g3
F3.679710312412081
sg4
F1.3893314196062732
sg5
I01
sg6
F0.06855865896001506
sg7
F1.1149358408800742
sg8
F1.7982869855610175
sg9
F1.3353174117505944
sg10
F8.931467659550345
sg11
F4.889529068523686
sg12
F5.328806679468416
sg13
F7.523102905232358
sg14
F-0.3128459767528847
sg15
F-0.23229270146389316
sg16
F-0.34440008620012097
sg17
F-0.3174614029711621
sg18
F0.6407992292311628
sg19
F0.5028176784952142
sg20
F7.01303205213701
sg21
F5.553301783151832
sg22
F-0.4719604048288183
sg23
F11.60397840167705
sg24
F6.7988743155839515
sg25
F0.9525471596006074
ssS'BUTTS ROBERT H'
p154
(dp155
g3
F-0.4941878507428793
sg4
F-0.89175647759583
sg5
I00
sg6
F0.4479030061578633
sg7
F-0.24442802461548307
sg8
F-0.42694448343566177
sg9
F-0.40719258168763756
sg10
F-0.13085733741752043
sg11
F-0.5239739298495065
sg12
F-0.10987884647220342
sg13
F-0.42332024586145756
sg14
F-0.3128459767528847
sg15
F-0.2796533716237818
sg16
F-0.34440008620012097
sg17
F-0.7759488173949625
sg18
F-0.4529778323330576
sg19
F-0.29892748361403776
sg20
F-0.2973137748919601
sg21
F0.019924610673400907
sg22
F-0.36062807681989556
sg23
F-0.10890306570593794
sg24
F-0.39206958776479156
sg25
F-0.7971735949277609
ssS'OLSON CINDY K'
p156
(dp157
g3
F-0.17623886840850472
sg4
F0.48012028843176796
sg5
I00
sg6
F0.11076625535308525
sg7
F-0.4636802609857343
sg8
F0.2113548761339086
sg9
F-0.22541484806082931
sg10
F-0.2637278786357228
sg11
F-0.6425177911277514
sg12
F-0.10987884647220342
sg13
F-0.06606031444829707
sg14
F-0.2879991917886467
sg15
F-0.21919226018360685
sg16
F-0.29576777363333673
sg17
F-0.3401681601383437
sg18
F0.40675113496084153
sg19
F0.17439194943841235
sg20
F-0.015935224196919784
sg21
F0.4810046835972088
sg22
F0.06614584721430783
sg23
F-0.10318049762492547
sg24
F-0.13456966358172764
sg25
F0.21680492281578817
ssS'MCDONALD REBECCA'
p158
(dp159
g3
F-0.4012891768920951
sg4
F-0.2983146424655646
sg5
I00
sg6
F0.3015081425190464
sg7
F-0.1567271300673825
sg8
F-0.24709217770058964
sg9
F-0.40435230459971866
sg10
F-0.24488002981839288
sg11
F-0.2916970080179179
sg12
F-0.2885200549636785
sg13
F-0.2154496051645833
sg14
F-0.3128459767528847
sg15
F-0.2796533716237818
sg16
F-0.34440008620012097
sg17
F3.0273957350483087
sg18
F-0.41241719498528223
sg19
F-0.26672888272611595
sg20
F-0.03411110333692372
sg21
F-0.19299072274104934
sg22
F0.036103790449995385
sg23
F-0.17261837521792822
sg24
F-0.3210364242664245
sg25
F-0.7971735949277609
ssS'CUMBERLAND MICHAEL S'
p160
(dp161
g3
F-0.34003309210284266
sg4
F-0.5654687283488323
sg5
I00
sg6
F0.4203131212369666
sg7
F-0.28740532063194524
sg8
F-0.4755863119781994
sg9
F-0.33994226764274077
sg10
F-0.2639577861086358
sg11
F-0.3659154481451801
sg12
F-0.47970946223616656
sg13
F-0.45753905703092845
sg14
F0.0011542019478102867
sg15
F-0.03992063551775522
sg16
F0.018357273109426767
sg17
F0.11511657675750088
sg18
F-0.28411742385802696
sg19
F-0.10742970943735528
sg20
F-0.40417504009488253
sg21
F-0.5029517391564354
sg22
F-0.2070742915000945
sg23
F-0.16199223727427156
sg24
F-0.42201647114910984
sg25
F0.08178272002342374
ssS'GAHN ROBERT S'
p162
(dp163
g3
F-0.325444313450829
sg4
F0.13423105618145387
sg5
I00
sg6
F0.5725943360692343
sg7
F-0.28636430227572174
sg8
F-0.46576443501465703
sg9
F-0.3346322954140276
sg10
F-0.19664194324806852
sg11
F-0.3907592488494569
sg12
F-0.3188374953272633
sg13
F-0.43947862572549573
sg14
F0.02273290717859541
sg15
F-0.02700159235440071
sg16
F0.02207521089495296
sg17
F0.0628229857279304
sg18
F-0.2695147230076243
sg19
F-0.13072556403830132
sg20
F-0.39019555476484885
sg21
F-0.45443603153357937
sg22
F-0.1947538485271819
sg23
F-0.15138541868945715
sg24
F-0.46390992176415363
sg25
F0.10539233508740878
ssS'BADUM JAMES P'
p164
(dp165
g3
F-0.3931427954261503
sg4
F-1.041202018537473
sg5
I00
sg6
F0.43437630170038755
sg7
F-0.32599518846062064
sg8
F-0.5436938363306568
sg9
F-0.3515182418260006
sg10
F-0.2609444343462498
sg11
F-0.4622259610373702
sg12
F-0.48740623127687377
sg13
F-0.44939932131729143
sg14
F-0.02065324943776805
sg15
F-0.004810236164249622
sg16
F0.003608731727479635
sg17
F0.07037087176071635
sg18
F-0.3032242138449015
sg19
F-0.16469094024499997
sg20
F-0.38284938079713393
sg21
F-0.48888050831211427
sg22
F-0.2385235326005682
sg23
F-0.23361623145120947
sg24
F-0.4269062319169677
sg25
F-0.008979238177437652
ssS'HERMANN ROBERT J'
p166
(dp167
g3
F-0.5504504278637768
sg4
F0.0907647045537605
sg5
I00
sg6
F0.10227815648871229
sg7
F-0.3321289191635836
sg8
F-0.5397929889949227
sg9
F-0.31488357633027403
sg10
F0.10507300114692168
sg11
F-0.5634885502755883
sg12
F-0.15338833067972923
sg13
F-0.38243748200576566
sg14
F-0.3128459767528847
sg15
F-0.2796533716237818
sg16
F-0.34440008620012097
sg17
F-0.7759488173949625
sg18
F-0.19694711302665313
sg19
F-0.29892748361403776
sg20
F-0.2651996914394842
sg21
F0.027752366566409097
sg22
F-0.4268973196823495
sg23
F-0.10593969723433184
sg24
F-0.4418105076586596
sg25
F-0.7971735949277609
ssS'SCRIMSHAW MATTHEW'
p168
(dp169
g3
F-0.4889541226386097
sg4
F-0.3620839752102521
sg5
I00
sg6
F0.34605662042685736
sg7
F-0.06902623551928216
sg8
F-0.44810357822802294
sg9
F-0.3986717504238809
sg10
F-0.25443337993015996
sg11
F-0.32401401711417765
sg12
F-0.34312679631946336
sg13
F-0.36751727153562386
sg14
F-0.2696924141176514
sg15
F-0.2796533716237818
sg16
F2.9474836005622773
sg17
F-0.5340791797625399
sg18
F-0.41241719498528223
sg19
F-0.5661758709837884
sg20
F-0.30587651639148444
sg21
F-0.26838336163426746
sg22
F-0.3968552629180371
sg23
F-0.18747407071975292
sg24
F-0.3205582462145559
sg25
F0.8848386159504167
ssS'GATHMANN WILLIAM D'
p170
(dp171
g3
F-0.4009493291226307
sg4
F-0.4418176162393752
sg5
I00
sg6
F0.22580123707024144
sg7
F-0.3034486695877481
sg8
F-0.5334301374989986
sg9
F-0.3525330767947367
sg10
F-0.25559698702978606
sg11
F-0.288367867056577
sg12
F-0.31871469288721166
sg13
F-0.17399875541721418
sg14
F0.02100016789603067
sg15
F-0.03208286637248997
sg16
F0.035455609849240136
sg17
F0.09198322326849047
sg18
F-0.2860831909700215
sg19
F-0.16445526807031402
sg20
F-0.3755978734557652
sg21
F-0.23326643677000902
sg22
F-0.2214008085618447
sg23
F-0.1819275106782744
sg24
F-0.10982734073121923
sg25
F0.040661895434238295
ssS'HAEDICKE MARK E'
p172
(dp173
g3
F0.9529379700876491
sg4
F0.7923817512568287
sg5
I00
sg6
F-1.0011654245398927
sg7
F1.1149358408800742
sg8
F0.7191731511505831
sg9
F1.541237500624713
sg10
F-0.21809257677294663
sg11
F0.7536854846681511
sg12
F0.2381970271879961
sg13
F-0.36041219958332876
sg14
F-0.22104036685281725
sg15
F-0.13064537469468587
sg16
F-0.33051582377297567
sg17
F-0.3460632117246906
sg18
F0.7968312920780437
sg19
F1.9163362574749792
sg20
F-0.2430113993208664
sg21
F0.7884300713151364
sg22
F2.223872394815808
sg23
F0.18738603136184176
sg24
F-0.352523050056832
sg25
F-0.5686262677743121
ssS'BOWEN JR RAYMOND M'
p174
(dp175
g3
F0.23460878777665403
sg4
F0.5335009036634571
sg5
I01
sg6
F0.5729467048184091
sg7
F1.2464871827022252
sg8
F0.9660292570614666
sg9
F-0.28222038981920694
sg10
F-0.26315177844297927
sg11
F0.7393764503194579
sg12
F0.4122349640180953
sg13
F-0.4503396576884039
sg14
F-0.3128459767528847
sg15
F-0.2796533716237818
sg16
F-0.34440008620012097
sg17
F-0.13754042162680663
sg18
F-0.33440116356184185
sg19
F-0.5629560108949961
sg20
F-0.38169217478921563
sg21
F0.1365220033779251
sg22
F-0.46665886539982193
sg23
F0.051180780922015466
sg24
F-0.3492264505870392
sg25
F-0.1595267698885626
ssS'GILLIS JOHN'
p176
(dp177
g3
F-0.371599904200522
sg4
F-0.6523769945967512
sg5
I00
sg6
F0.5353712934746313
sg7
F-0.3018118694620356
sg8
F-0.48575531642391545
sg9
F-0.3458259059489156
sg10
F-0.26286784870962593
sg11
F-0.5563766734994888
sg12
F-0.5167656425563781
sg13
F-0.47749778626568784
sg14
F0.018676804789504346
sg15
F-0.021077343918464428
sg16
F-0.006327270580000821
sg17
F0.0916310941103553
sg18
F-0.2835090359428417
sg19
F-0.1192756289288807
sg20
F-0.4714997929591963
sg21
F-0.46753018457808626
sg22
F-0.19059401227890488
sg23
F-0.2372886112444164
sg24
F-0.47947487170250996
sg25
F0.044221546713887463
ssS'FITZGERALD JAY L'
p178
(dp179
g3
F-0.3240916873541192
sg4
F-0.5269721220900629
sg5
I00
sg6
F0.34525747462186607
sg7
F-0.595231602807885
sg8
F-0.15540276693368965
sg9
F-0.395831473335962
sg10
F-0.011236212958777412
sg11
F0.07888640872786784
sg12
F-0.45795472013240385
sg13
F-0.2268945530483244
sg14
F-0.1119418044745994
sg15
F-0.2796533716237818
sg16
F-0.34440008620012097
sg17
F1.350978397717344
sg18
F-0.33440116356184185
sg19
F-0.2506295822821551
sg20
F-0.022537129153727842
sg21
F-0.40564734201384506
sg22
F0.9135085659488851
sg23
F-0.09249684375882332
sg24
F-0.3407146380676202
sg25
F1.4898671045385738
ssS'MORAN MICHAEL P'
p180
(dp181
g3
F-0.3934385847356905
sg4
F-0.5599163026426635
sg5
I00
sg6
F0.4885273414153303
sg7
F-0.4259758395579225
sg8
F-0.716118778931268
sg9
F-0.395831473335962
sg10
F-0.26169765840299636
sg11
F-0.4654881331665517
sg12
F-0.44696273820951704
sg13
F-0.45538470430009614
sg14
F0.8930949353222206
sg15
F-0.2796533716237818
sg16
F0.4322951878415012
sg17
F-0.7759488173949625
sg18
F-0.4431401905521045
sg19
F-0.29892748361403776
sg20
F-0.4277908399936468
sg21
F-0.3249977570679721
sg22
F-0.400389622537368
sg23
F-0.2220515475441207
sg24
F-0.468932910892339
sg25
F-0.3622706052960881
ssS'REDMOND BRIAN L'
p182
(dp183
g3
F0.13778481784766755
sg4
F-0.7585824379889871
sg5
I00
sg6
F0.08189478095425005
sg7
F1.2464871827022252
sg8
F0.16903668654918533
sg9
F0.798505042133926
sg10
F-0.2532231767531894
sg11
F-0.42190887984985637
sg12
F-0.42178429399648765
sg13
F0.7961966409997001
sg14
F-0.28374109645118206
sg15
F0.1322621849336837
sg16
F-0.33122093140637654
sg17
F1.5535015306102624
sg18
F0.9528633549249242
sg19
F-0.595154611782918
sg20
F-0.31583111430068983
sg21
F-1.1039145605885663
sg22
F-0.47637835435298176
sg23
F-0.2417391291393091
sg24
F1.1100508645493579
sg25
F0.0994110551813293
ssS'BAZELIDES PHILIP J'
p184
(dp185
g3
F-0.3895165496174143
sg4
F-0.3344828008276937
sg5
I00
sg6
F0.273738009460043
sg7
F-0.3131534976950631
sg8
F-0.5206959113219927
sg9
F-0.3446490407920257
sg10
F-0.26381487065250064
sg11
F-0.6523964462342717
sg12
F-0.3589798356936928
sg13
F-0.2304187744877852
sg14
F0.025414859451037945
sg15
F-0.03867645006427168
sg16
F-0.003667568359893158
sg17
F0.13134815608517694
sg18
F-0.2876813590426791
sg19
F-0.10619038506676107
sg20
F-0.287740215040929
sg21
F-1.2132574593835288
sg22
F-0.23027732618355667
sg23
F-0.15601717769513754
sg24
F-0.14249542239978127
sg25
F-0.02043815919777463
ssS'BELDEN TIMOTHY N'
p186
(dp187
g3
F2.7611910301127742
sg4
F-0.6913268991384778
sg5
I01
sg6
F-3.361445952804906
sg7
F0.9395340517838736
sg8
F2.926772041153626
sg9
F1.8096436854330467
sg10
F-0.07755963668916378
sg11
F0.14897409519307736
sg12
F3.8059738620153634
sg13
F-0.3102112604208372
sg14
F0.029699907514305457
sg15
F-0.13628287509567688
sg16
F-0.23053432629100015
sg17
F-0.46693283192486246
sg18
F-0.29539314785012166
sg19
F-0.29892748361403776
sg20
F-0.42984622695449365
sg21
F-0.30435740917681986
sg22
F-0.4816798937819781
sg23
F0.3754738760839669
sg24
F-0.279527559555555
sg25
F0.1099348593524613
ssS'DURAN WILLIAM D'
p188
(dp189
g3
F-0.33325071153659086
sg4
F-0.4786621607627086
sg5
I00
sg6
F0.11686442159583241
sg7
F0.5448800263174214
sg8
F-0.2964633988827661
sg9
F-0.3944113347920026
sg10
F-0.2631988251459306
sg11
F0.946314517490846
sg12
F-0.10987884647220342
sg13
F-0.22368383146462653
sg14
F-0.3128459767528847
sg15
F1.743701783592482
sg16
F-0.34440008620012097
sg17
F0.8362241245350379
sg18
F-0.32633410274244784
sg19
F-0.29892748361403776
sg20
F-0.41380676788388393
sg21
F-0.3269261875013075
sg22
F0.30648230132880744
sg23
F-0.014813511661428046
sg24
F-0.173816932630612
sg25
F0.23496585109785018
ssS'THORN TERENCE H'
p190
(dp191
g3
F-0.5700769082547876
sg4
F0.03496228447224252
sg5
I00
sg6
F0.17277947273474703
sg7
F-0.5081902516391064
sg8
F-0.7760695475096253
sg9
F-0.4057724431436781
sg10
F0.11411662019726096
sg11
F-0.484459309423425
sg12
F-0.21038498434339062
sg13
F0.2947718180803226
sg14
F-0.140327359800917
sg15
F-0.2796533716237818
sg16
F4.586726411886902
sg17
F-0.724086367465879
sg18
F-0.46737706711823673
sg19
F-0.29892748361403776
sg20
F-0.32396755189799137
sg21
F-0.24911952234331317
sg22
F-0.400389622537368
sg23
F-0.15014093905154938
sg24
F0.4621867950661175
sg25
F4.751503517733944
ssS'PICKERING MARK R'
p192
(dp193
g3
F-0.1553039559914264
sg4
F-0.3306293393168001
sg5
I00
sg6
F0.5049282665329681
sg7
F-0.595231602807885
sg8
F-0.0637133561667902
sg9
F-0.28222038981920694
sg10
F-0.26186517804455095
sg11
F-0.387261579340199
sg12
F-0.501464204339929
sg13
F-0.48677434654738616
sg14
F-0.3128459767528847
sg15
F-0.13349673545495372
sg16
F-0.16199284858605578
sg17
F1.0359894746798495
sg18
F-0.3064979252715633
sg19
F-0.29892748361403776
sg20
F-0.4475460935217744
sg21
F2.7055273367183585
sg22
F-0.4295480893968477
sg23
F-0.09572220794367325
sg24
F-0.47544872272412014
sg25
F-0.6661727088109897
ssS'FASTOW ANDREW S'
p194
(dp195
g3
F-0.2285761494512002
sg4
F0.2815827450133477
sg5
I01
sg6
F-1.76250278546647
sg7
F0.150226000850969
sg8
F0.3136238342969885
sg9
F-0.3844703649842865
sg10
F-0.018293218401474753
sg11
F1.9434059017199676
sg12
F0.3687254798105719
sg13
F-0.19863289192305983
sg14
F-0.3128459767528847
sg15
F0.44521559509869896
sg16
F-0.34440008620012097
sg17
F-0.4882923469302642
sg18
F-0.37340917927356204
sg19
F-0.14759405944080553
sg20
F0.40435802773265783
sg21
F1.2427606668386078
sg22
F-0.2466449790964748
sg23
F0.02306822865994347
sg24
F0.25335639133226523
sg25
F-0.6921658639965331
ssS'FOY JOE'
p196
(dp197
g3
F-0.6315732134799547
sg4
F-0.6056293335945238
sg5
I00
sg6
F0.4427408736285773
sg7
F-0.5737803098529207
sg8
F-0.8078081896981675
sg9
F-0.38873078061616484
sg10
F-0.2586297692480345
sg11
F-0.4700570329845373
sg12
F-0.4497655257678931
sg13
F-0.43542695424239797
sg14
F-0.3128459767528847
sg15
F-0.2796533716237818
sg16
F-0.34440008620012097
sg17
F5.194776031235296
sg18
F-0.40999236709102505
sg19
F-0.29892748361403776
sg20
F-0.361276272144342
sg21
F-0.4459294388485199
sg22
F-0.400389622537368
sg23
F-0.23369764707713442
sg24
F-0.4087589933235062
sg25
F-0.7971735949277609
ssS'CALGER CHRISTOPHER F'
p198
(dp199
g3
F0.35629296620092116
sg4
F-0.22555832682153665
sg5
I01
sg6
F0.1317827168263228
sg7
F1.2903376299762759
sg8
F1.5126392058641376
sg9
F-0.052157945697777826
sg10
F-0.2641592880250499
sg11
F-0.20737646865647177
sg12
F0.32521599560304587
sg13
F-0.4709069454667034
sg14
F-0.24507092941202147
sg15
F0.5198291942897587
sg16
F-0.34440008620012097
sg17
F0.1867937726533183
sg18
F-0.10035306929152062
sg19
F3.7838551089744428
sg20
F-0.44592136097855223
sg21
F-0.1256225121951663
sg22
F-0.3968552629180371
sg23
F-0.06679652999989505
sg24
F-0.36593167346360567
sg25
F0.030169668434928413
ssS'LEWIS RICHARD'
p200
(dp201
g3
F-0.23904360565973934
sg4
F-0.45674109689919057
sg5
I00
sg6
F0.3045017377351714
sg7
F-0.5075307082597845
sg8
F-0.0037625875884325917
sg9
F-0.39157105770408374
sg10
F-0.2530073479789786
sg11
F-0.336538921786638
sg12
F-0.2849072417931994
sg13
F-0.35267947513480014
sg14
F-0.3128459767528847
sg15
F-0.2796533716237818
sg16
F-0.34440008620012097
sg17
F0.8061903315609593
sg18
F-0.39020416267147273
sg19
F-0.29892748361403776
sg20
F-0.290320210877596
sg21
F-0.26667951300042153
sg22
F0.11827765159943825
sg23
F-0.18784777525596552
sg24
F-0.30128699245750373
sg25
F0.46966024600273065
ssS'KAMINSKI WINCENTY J'
p202
(dp203
g3
F1.3834121066638192
sg4
F0.9794661759062603
sg5
I00
sg6
F0.3355767439208291
sg7
F-0.3321289191635836
sg8
F-0.10603154575151308
sg9
F5.74342745220069
sg10
F-0.26044614918645836
sg11
F-0.28931082440236083
sg12
F-0.4144452359248787
sg13
F-0.3321885631672748
sg14
F0.6141348847684412
sg15
F-0.25593662898919
sg16
F-0.33475768769816205
sg17
F0.29298797300873763
sg18
F0.6407992292311628
sg19
F4.794891176855184
sg20
F-0.44592136097855223
sg21
F0.11263608740099697
sg22
F4.411640999181622
sg23
F-0.1300597920934504
sg24
F-0.30138597700990744
sg25
F0.9655341459583526
ssS'LOCKHART EUGENE E'
p204
(dp205
g3
F-0.37950088491586975
sg4
F-0.3998941667856341
sg5
I00
sg6
F0.33812234873779906
sg7
F-0.32781617551337877
sg8
F-0.5432935613761258
sg9
F-0.3452637756672715
sg10
F-0.2548044935267013
sg11
F-0.2776813487174097
sg12
F-0.3415313113275432
sg13
F-0.3269542475575277
sg14
F0.025168216653024367
sg15
F-0.03321509020795596
sg16
F0.0007782114843235241
sg17
F0.024108931871009612
sg18
F-0.3039326500858162
sg19
F-0.13755582939775376
sg20
F-0.27258279489861276
sg21
F-0.20987800869460477
sg22
F-0.20605700991187784
sg23
F-0.18261315626587293
sg24
F-0.3280986585016738
sg25
F0.08208196115645648
ssS'COX DAVID'
p206
(dp207
g3
F-0.5831612285154615
sg4
F-0.4262906308851181
sg5
I00
sg6
F0.5048046582375405
sg7
F-0.48191388708553257
sg8
F-0.7337513579249025
sg9
F-0.3645884253688544
sg10
F-0.2641521866359252
sg11
F-0.34837621197877205
sg12
F-0.06636936226467852
sg13
F-0.41058865931929034
sg14
F-0.3128459767528847
sg15
F-0.2796533716237818
sg16
F-0.34440008620012097
sg17
F-0.7759488173949625
sg18
F-0.41241719498528223
sg19
F-0.42772188716572473
sg20
F-0.31746349824207115
sg21
F0.3800696272261226
sg22
F-0.400389622537368
sg23
F-0.12839117254214452
sg24
F-0.45663678272522396
sg25
F-0.7971735949277609
ssS'OVERDYKE JR JERE C'
p208
(dp209
g3
F-0.503346874925351
sg4
F-0.6540159681707711
sg5
I00
sg6
F-0.17843980816913108
sg7
F-0.2882784718895333
sg8
F-0.564478599586011
sg9
F-0.40861272023159695
sg10
F-0.2644344668536331
sg11
F-0.5858759536241891
sg12
F-0.3937714132611601
sg13
F0.7010973328535047
sg14
F-0.3128459767528847
sg15
F-0.2796533716237818
sg16
F-0.34440008620012097
sg17
F-0.7759488173949625
sg18
F-0.44255265185185827
sg19
F-0.29892748361403776
sg20
F0.5300378308798558
sg21
F-1.1168743761429054
sg22
F0.7924567489868027
sg23
F-0.22590739691830627
sg24
F0.6347425168668612
sg25
F-0.7971735949277609
ssS'STABLER FRANK'
p210
(dp211
g3
F-0.6014792768804048
sg4
F-0.7125429187083497
sg5
I00
sg6
F0.36091654160982817
sg7
F-0.5513811555338348
sg8
F-0.7619634843147177
sg9
F-0.4010022848829236
sg10
F0.05148414346445143
sg11
F-0.17931158630000385
sg12
F-0.32742626750982856
sg13
F-0.4079610376755413
sg14
F-0.0008849803220066018
sg15
F-0.04004766205108295
sg16
F-0.033259354391552635
sg17
F0.03426086329372292
sg18
F-0.4364375851938817
sg19
F-0.28110539682455543
sg20
F-0.24934879997996112
sg21
F-0.1303109762740661
sg22
F-0.3933209032987062
sg23
F-0.12716661740340834
sg24
F-0.37225544494404633
sg25
F0.058049415875247
ssS'SKILLING JEFFREY K'
p212
(dp213
g3
F1.2669616563438206
sg4
F-0.38908060845282133
sg5
I01
sg6
F-0.3931803464019372
sg7
F1.0272349463319737
sg8
F1.2516770367583456
sg9
F0.9177966798265181
sg10
F-0.24495358113722607
sg11
F2.234146575890996
sg12
F4.110541121657718
sg13
F3.766913440794458
sg14
F-0.239080589610615
sg15
F-0.2796533716237818
sg16
F0.5166468788082904
sg17
F-0.19706738493819706
sg18
F0.679807244942883
sg19
F0.4255410363642016
sg20
F2.977673962750026
sg21
F5.819029186121463
sg22
F-0.47461117454331636
sg23
F0.739735631092581
sg24
F3.598645659783095
sg25
F-0.4985827363612334
ssS'BLAKE JR. NORMAN P'
p214
(dp215
g3
F-0.29102734271115643
sg4
F-1.0968783029497293
sg5
I00
sg6
F0.38251415655021276
sg7
F-0.24138905866764113
sg8
F-0.39640101522123267
sg9
F-0.3316689006434943
sg10
F-0.26293096623916007
sg11
F-0.6827131620577935
sg12
F-0.6790583312466467
sg13
F-0.4343074306792996
sg14
F0.02582689519737676
sg15
F-0.037065928354133436
sg16
F0.011258791227605163
sg17
F0.1261251868180524
sg18
F-0.28589271976945596
sg19
F-0.13036381846910747
sg20
F-0.396925153816995
sg21
F-0.9303376862720568
sg22
F-0.2195330165002315
sg23
F-0.25436370404539455
sg24
F-0.4243388526374769
sg25
F0.07533835794064116
ssS'SHERRICK JEFFREY B'
p216
(dp217
g3
F-0.47325293832580106
sg4
F-0.46854913268952864
sg5
I00
sg6
F0.18211789222801955
sg7
F-0.1567271300673825
sg8
F-0.31762249367512746
sg9
F-0.3645884253688544
sg10
F-0.2532243087179551
sg11
F-0.2862611946919673
sg12
F-0.278667322549257
sg13
F-0.1924222982161775
sg14
F0.08510468061662219
sg15
F-0.2796533716237818
sg16
F0.9898453021145496
sg17
F1.4378124071307756
sg18
F-0.022337037868080376
sg19
F-0.10573587828650713
sg20
F-0.3032358171644719
sg21
F-0.18045703461270096
sg22
F-0.22013728195149332
sg23
F-0.1742298637423235
sg24
F-0.179200674881262
sg25
F-0.45428727461144036
ssS'PRENTICE JAMES'
p218
(dp219
g3
F-0.5125058991078226
sg4
F-0.47312904691135943
sg5
I00
sg6
F0.3122781654745468
sg7
F-0.4636802609857343
sg8
F-0.7443309053210833
sg9
F-0.4057724431436781
sg10
F-0.2565109500080893
sg11
F-0.3010565258828314
sg12
F-0.32136592102081046
sg13
F-0.3127677285314719
sg14
F-0.3128459767528847
sg15
F-0.2796533716237818
sg16
F-0.34440008620012097
sg17
F-0.7759488173949625
sg18
F-0.4514252106970024
sg19
F-0.23453028183819416
sg20
F-0.40373216102992443
sg21
F-0.27678162783565646
sg22
F0.7986418783206319
sg23
F-0.18988745218331166
sg24
F-0.2937086333854664
sg25
F-0.7971735949277609
ssS'GRAY RODNEY'
p220
(dp221
g3
F-0.40789676105995976
sg4
F-0.18945422469158738
sg5
I00
sg6
F0.3579376201192496
sg7
F-0.3283247599062734
sg8
F-0.5363178790612543
sg9
F-0.3573120242467395
sg10
F0.3397668103300207
sg11
F-0.2226749491006343
sg12
F-0.17512752202187887
sg13
F-0.23725373582499282
sg14
F-0.015765861371226934
sg15
F-0.041489032588778535
sg16
F0.012003513756774855
sg17
F0.0605915832092605
sg18
F-0.30567079261742375
sg19
F-0.15596167900238136
sg20
F-0.14388564270097173
sg21
F0.0009864915774052334
sg22
F-0.23710478137235486
sg23
F-0.12320794004215395
sg24
F-0.26457876217373705
sg25
F0.08681792265942734
ssS'BELFER ROBERT'
p222
(dp223
g3
F-0.23181215272184785
sg4
F-0.629568296087859
sg5
I00
sg6
F0.5511948412832886
sg7
F-0.204649456398975
sg8
F-0.3183691969948735
sg9
F-0.30311806561088245
sg10
F-0.2631348977452867
sg11
F-0.5987820822800041
sg12
F-0.5572972336937119
sg13
F-0.4842782610221926
sg14
F0.013426040469883061
sg15
F-0.008942122790943606
sg16
F0.027679470679988865
sg17
F0.09865776647848433
sg18
F-0.21576846262958876
sg19
F-0.12406093121605806
sg20
F-0.46550875112700685
sg21
F-0.44072047741664916
sg22
F-0.22587640974099657
sg23
F-0.24239686662920076
sg24
F-0.4808564162690351
sg25
F0.05961328317087526
ssS'UMANOFF ADAM S'
p224
(dp225
g3
F-0.588394956619731
sg4
F0.21097199736046762
sg5
I00
sg6
F0.32430210500678264
sg7
F-0.4636802609857343
sg8
F-0.7725430317108984
sg9
F-0.37594953372052986
sg10
F-0.2546168497607279
sg11
F-0.23026012612115318
sg12
F-0.07615899621137245
sg13
F-0.333759280483616
sg14
F-0.07494469260532276
sg15
F-0.2796533716237818
sg16
F-0.3000797070219813
sg17
F-0.2830483287003435
sg18
F-0.3801852485512246
sg19
F-0.29892748361403776
sg20
F-0.28031544587818463
sg21
F0.20468558302866374
sg22
F-0.3968552629180371
sg23
F-0.1250626360943433
sg24
F-0.32823496628697385
sg25
F0.49678744810879283
ssS'KEAN STEVEN J'
p226
(dp227
g3
F2.8737161843545707
sg4
F-0.07078986063703692
sg5
I00
sg6
F-0.15906779531286008
sg7
F0.5448800263174214
sg8
F2.574120461280935
sg9
F1.968699202356503
sg10
F-0.2634979711628097
sg11
F-0.3264008277190982
sg12
F0.10766857456542069
sg13
F0.5127767781645135
sg14
F-0.22319409103183346
sg15
F-0.2638850940575779
sg16
F-0.30526670757708013
sg17
F-0.6957179409022773
sg18
F3.4883843761867355
sg19
F0.7378674649770427
sg20
F1.595484585611587
sg21
F0.9946201225754134
sg22
F0.9700583198581795
sg23
F-0.05440383504106437
sg24
F-0.05296272897968576
sg25
F-0.6762616470113234
ssS'HUGHES JAMES A'
p228
(dp229
g3
F-0.4745613703518685
sg4
F-0.4015951863245716
sg5
I00
sg6
F0.3386634020230525
sg7
F-0.24442802461548307
sg8
F-0.4516300940267498
sg9
F-0.3972516118799215
sg10
F-0.255167682364215
sg11
F-0.30955018021665787
sg12
F-0.3006921349836486
sg13
F-0.30895644501690034
sg14
F-0.3128459767528847
sg15
F-0.08782756285249056
sg16
F0.3519912818905386
sg17
F-0.5378225381936967
sg18
F-0.41241719498528223
sg19
F-0.18623238050631155
sg20
F-0.32493179492549495
sg21
F-0.247966930269218
sg22
F0.8657947110879186
sg23
F-0.1867918048767456
sg24
F-0.32153134702844316
sg25
F-0.4595817930866546
ssS'FOWLER PEGGY'
p230
(dp231
g3
F-0.4497011618565882
sg4
F-0.2827542407609319
sg5
I00
sg6
F0.24084633035323147
sg7
F-0.548291564856013
sg8
F-0.8113347054968945
sg9
F-0.22115443242895103
sg10
F-0.24789710367490508
sg11
F-0.2760818082407944
sg12
F-0.25875829000423706
sg13
F-0.18389040208952728
sg14
F-0.3128459767528847
sg15
F-0.2796533716237818
sg16
F-0.34440008620012097
sg17
F-0.7759488173949625
sg18
F-0.3427267637550317
sg19
F-0.29892748361403776
sg20
F-0.22466377076211516
sg21
F-0.1586260033241088
sg22
F-0.400389622537368
sg23
F-0.162510497292213
sg24
F-0.20079732376555337
sg25
F-0.7971735949277609
ssS'WASAFF GEORGE'
p232
(dp233
g3
F-0.4575517540129925
sg4
F-0.3631389894186073
sg5
I00
sg6
F-0.40912017290589686
sg7
F-0.20057757734143275
sg8
F-0.38109977805221207
sg9
F-0.3319252388577873
sg10
F-0.2633257624765351
sg11
F-0.484459309423425
sg12
F-0.47970946223616656
sg13
F-0.1558730456410345
sg14
F1.190034150997123
sg15
F-0.22813379272989395
sg16
F-0.34440008620012097
sg17
F-0.4331388820996867
sg18
F-0.17836910071496107
sg19
F-0.5500765705398275
sg20
F-0.3123237567344742
sg21
F0.009551298591988645
sg22
F-0.4525214269224984
sg23
F-0.13606302079210292
sg24
F-0.12795105194712897
sg25
F0.2522259276397239
ssS'WHITE JR THOMAS E'
p234
(dp235
g3
F-0.5085806030296206
sg4
F0.923159213147692
sg5
I00
sg6
F0.17355077963716878
sg7
F-0.28586519059455695
sg8
F-0.458683125624204
sg9
F-0.388501904389676
sg10
F0.6989461955223005
sg11
F0.05568679206358725
sg12
F-0.3709357517173541
sg13
F1.9799889055674236
sg14
F0.007178752492890721
sg15
F-0.0175856307276154
sg16
F-0.01056573221926684
sg17
F0.09360531452995836
sg18
F-0.36423421947742324
sg19
F-0.29650609111582327
sg20
F6.54690311037414
sg21
F0.40228352908466963
sg22
F-0.400389622537368
sg23
F-0.03300938876688484
sg24
F-0.206632325356819
sg25
F0.10871225599941042
ssS'LAVORATO JOHN J'
p236
(dp237
g3
F2.936520921605804
sg4
F0.12053272249959887
sg5
I00
sg6
F-1.0113036138866642
sg7
F6.6400921974104055
sg8
F3.5580183691257408
sg9
F2.646105287825157
sg10
F-0.26321302792418005
sg11
F2.416514452081447
sg12
F6.198996363618928
sg13
F0.35178407607674816
sg14
F-0.2517168628585036
sg15
F-0.22538141522423363
sg16
F-0.3287537806615394
sg17
F-0.5653035358999059
sg18
F6.218945476007151
sg19
F-0.5565162907174118
sg20
F0.0036452288245864897
sg21
F0.5506833127756199
sg22
F-0.44545270768383666
sg23
F0.9393288435087093
sg24
F0.3999810446935541
sg25
F0.8662124067003165
ssS'ALLEN PHILLIP K'
p238
(dp239
g3
F0.309189413262495
sg4
F-0.7792939148818114
sg5
I00
sg6
F-4.620230201023598
sg7
F-0.20057757734143275
sg8
F0.5992716139938685
sg9
F0.6408696637544278
sg10
F-0.26445577102100726
sg11
F-0.31880611767320566
sg12
F2.870520821743259
sg13
F-0.20921959111265323
sg14
F-0.2712960336217436
sg15
F-0.2571693269459243
sg16
F-0.33329168742805343
sg17
F-0.6720239419247219
sg18
F-0.022337037868080376
sg19
F2.492691213368779
sg20
F-0.44592136097855223
sg21
F-0.38655225832714624
sg22
F6.005637187499846
sg23
F0.2589970860651804
sg24
F-0.11496203191318782
sg25
F-0.6655538451898613
ssS'SHARP VICTORIA T'
p240
(dp241
g3
F0.5041457851465351
sg4
F1.8057052638402094
sg5
I00
sg6
F0.37408690608538336
sg7
F-0.20057757734143275
sg8
F1.4280028266946907
sg9
F-0.12600514998366855
sg10
F-0.26245939300331844
sg11
F-0.1333197476387264
sg12
F-0.24040729909477945
sg13
F-0.41083296399606145
sg14
F-0.3128459767528847
sg15
F-0.12547023479921168
sg16
F-0.34440008620012097
sg17
F-0.37316720209522564
sg18
F-0.41241719498528223
sg19
F-0.4534807678760622
sg20
F-0.4015641431446177
sg21
F-0.07131958835847145
sg22
F-0.1847936857581845
sg23
F-0.07398606795956383
sg24
F-0.42197692838227785
sg25
F-0.675990372078495
ssS'JAEDICKE ROBERT'
p242
(dp243
g3
F-0.24012483583432132
sg4
F-0.7058514838301254
sg5
I00
sg6
F0.5322017499796073
sg7
F-0.20422566845040369
sg8
F-0.3395717885894117
sg9
F-0.2953087797447985
sg10
F-0.26258028614110257
sg11
F-0.5427504311264517
sg12
F-0.545876585410953
sg13
F-0.42101412068613825
sg14
F0.050314374546989185
sg15
F-0.03986976817885293
sg16
F-0.01775172244200238
sg17
F0.08079173731187715
sg18
F-0.2110305128238519
sg19
F-0.093722459103213
sg20
F-0.4876783843482566
sg21
F-0.6239893984107644
sg22
F-0.21816318571386772
sg23
F-0.2449200639811789
sg24
F-0.3900396791263239
sg25
F0.09772232278388357
ssS'WINOKUR JR. HERBERT S'
p244
(dp245
g3
F-0.40832641703473116
sg4
F-1.0934978670135072
sg5
I00
sg6
F0.5322017499796073
sg7
F-0.3412782475478702
sg8
F-0.536112212081617
sg9
F-0.3652299877266195
sg10
F-0.25794441105654964
sg11
F-0.4847198810449948
sg12
F-0.5627269549739181
sg13
F-0.4069068384978705
sg14
F-0.01824856629656566
sg15
F-0.011412123106082429
sg16
F0.0050295839030500295
sg17
F0.098728909033279
sg18
F-0.3344931785252061
sg19
F-0.1634094465997183
sg20
F-0.3705468855778222
sg21
F-0.6416806854089167
sg22
F-0.22733700021089617
sg23
F-0.24477784428019608
sg24
F-0.40456358495965833
sg25
F0.0811737418227233
ssS'BROWN MICHAEL'
p246
(dp247
g3
F-0.015301729202216053
sg4
F0.11425116617034983
sg5
I00
sg6
F0.4284654153061525
sg7
F-0.3759793664376338
sg8
F-0.1765618617260516
sg9
F-0.3674287024567732
sg10
F-0.2597128032277166
sg11
F-0.5348276479114368
sg12
F-0.518015749513142
sg13
F-0.3807012256116955
sg14
F0.0924992369745582
sg15
F-0.15041047431925333
sg16
F-0.21932521685558268
sg17
F0.9716071374825191
sg18
F-0.4514252106970024
sg19
F0.6348319421356937
sg20
F-0.3289965635987145
sg21
F-0.5227983631583709
sg22
F-0.406574751871197
sg23
F-0.248866259903297
sg24
F-0.3751212597247486
sg25
F-0.25058990034326173
ssS'MCCLELLAN GEORGE'
p248
(dp249
g3
F0.054045168179355355
sg4
F4.64189101433062
sg5
I00
sg6
F0.3636042623361192
sg7
F-0.06902623551928216
sg8
F0.3383094448880774
sg9
F-0.2850606669071258
sg10
F-0.2187982773172163
sg11
F-0.26074397880635575
sg12
F0.020649606150371588
sg13
F-0.336786778646703
sg14
F-0.29190403395463366
sg15
F-0.2796533716237818
sg16
F-0.34440008620012097
sg17
F-0.5857345380159216
sg18
F-0.2348256527269914
sg19
F-0.29892748361403776
sg20
F-0.28534890514740296
sg21
F0.03287077713289722
sg22
F-0.4498706572080003
sg23
F-0.10350043469782887
sg24
F-0.3741396230266181
sg25
F-0.4742220001049144
ssS'CARTER REBECCA C'
p250
(dp251
g3
F-0.5491419958377094
sg4
F-0.41644026841841775
sg5
I00
sg6
F0.3049458244351969
sg7
F-0.24442802461548307
sg8
F-0.6350089155605491
sg9
F-0.21831415534103224
sg10
F-0.264111353648458
sg11
F-0.6820324115538332
sg12
F-0.501464204339929
sg13
F-0.38685465816557846
sg14
F-0.3128459767528847
sg15
F-0.2796533716237818
sg16
F-0.34440008620012097
sg17
F-0.20058623765531985
sg18
F0.6407992292311628
sg19
F-0.2828281831700769
sg20
F-0.35353648224298717
sg21
F0.021924203068038443
sg22
F-0.2219044617611588
sg23
F-0.19982576946833713
sg24
F-0.3742784673768159
sg25
F-0.7971735949277609
ssS'REYNOLDS LAWRENCE'
p252
(dp253
g3
F-0.2557783493932101
sg4
F-0.9170088385820865
sg5
I00
sg6
F0.23715614660350343
sg7
F-0.21487872639961028
sg8
F-0.3901689387349133
sg9
F-0.3070563216701797
sg10
F-0.08523446298571262
sg11
F-0.5536098951690679
sg12
F-0.6755021411700288
sg13
F0.197522400303896
sg14
F-8.525622992844416e-05
sg15
F-0.0012533122839737884
sg16
F0.00808665123103005
sg17
F0.023647811278247024
sg18
F-0.22810669965929717
sg19
F-0.09767476676846133
sg20
F-0.40746579972944436
sg21
F-1.243415134441258
sg22
F-0.20207562595861708
sg23
F-0.209339374296885
sg24
F0.40033649885711214
sg25
F0.04769397878481933
ssS'DIMICHELE RICHARD G'
p254
(dp255
g3
F-0.5962455487761353
sg4
F-0.22570968962465035
sg5
I00
sg6
F-0.025083793116138817
sg7
F-0.46599151350960466
sg8
F-0.7266983263274487
sg9
F-0.4029321660557592
sg10
F0.06801085130497223
sg11
F0.29771205430824027
sg12
F0.10766857456542069
sg13
F0.8659561523712688
sg14
F-0.3128459767528847
sg15
F-0.2796533716237818
sg16
F-0.34440008620012097
sg17
F0.8426419030182305
sg18
F-0.43606893497153804
sg19
F-0.29892748361403776
sg20
F-0.44592136097855223
sg21
F0.028605434994157384
sg22
F-0.400389622537368
sg23
F0.01666353275384667
sg24
F1.2547582257460077
sg25
F3.0827880883113217
ssS'BHATNAGAR SANJAY'
p256
(dp257
g3
F-0.5517588598898442
sg4
F-0.6031817357880679
sg5
I00
sg6
F0.2197963107415197
sg7
F-0.36614508156481457
sg8
F-0.5785846627809186
sg9
F-0.4029321660557592
sg10
F-0.14221245862795867
sg11
F-0.2843231508355641
sg12
F-0.33533167633061994
sg13
F-0.08334425391579292
sg14
F-0.3128459767528847
sg15
F-0.2796533716237818
sg16
F-0.34440008620012097
sg17
F1.0781559106805294
sg18
F-0.43550311761036326
sg19
F-0.29892748361403776
sg20
F0.817207955446224
sg21
F-0.24549904600074485
sg22
F-0.400389622537368
sg23
F-0.22293692891251246
sg24
F0.07049071999485117
sg25
F-0.4086988400954418
ssS'BUCHANAN HAROLD G'
p258
(dp259
g3
F0.2725533165326088
sg4
F-1.1140075268355119
sg5
I00
sg6
F0.16092579992395162
sg7
F-0.45241177317468634
sg8
F-0.7937021265032599
sg9
F1.1847827260908934
sg10
F-0.2635121739410592
sg11
F-0.31880611767320566
sg12
F-0.32742626750982856
sg13
F-0.3259107326355228
sg14
F-0.277988858627411
sg15
F-0.12231367927043857
sg16
F-0.3307437883163469
sg17
F-0.6697216695039626
sg18
F-0.07904390182598506
sg19
F-0.29892748361403776
sg20
F-0.41380676788388393
sg21
F-0.07219995497590567
sg22
F-0.400389622537368
sg23
F-0.13374513738848406
sg24
F-0.3065887068242566
sg25
F-0.6580695628107048
ssS'YEAP SOON'
p260
(dp261
g3
F-0.40611236107425513
sg4
F0.26079558671896685
sg5
I00
sg6
F0.48164967419361243
sg7
F-0.3368869878651692
sg8
F-0.5414724761218621
sg9
F-0.36108741483827733
sg10
F-0.2620789855280635
sg11
F-0.5549539063134898
sg12
F-0.5312041409703873
sg13
F-0.46001670138813594
sg14
F0.021046989688449768
sg15
F-0.008631953853113185
sg16
F0.00412008516978675
sg17
F0.03667715152837251
sg18
F-0.33175419149717106
sg19
F-0.12929961315552993
sg20
F-0.39900862720883146
sg21
F-0.4391557714216381
sg22
F-0.2100475252316438
sg23
F-0.24820107935337002
sg24
F-0.44069603062110374
sg25
F-0.025812803725344124
ssS'MURRAY JULIA H'
p262
(dp263
g3
F0.2529268361415973
sg4
F0.3234345600744864
sg5
I00
sg6
F0.33879240515463166
sg7
F-0.41982981371168404
sg8
F-0.33878158846748907
sg9
F-0.25949817311585593
sg10
F-0.2642977651129821
sg11
F-0.6030031707016699
sg12
F-0.4144452359248787
sg13
F-0.3939707190211923
sg14
F-0.3128459767528847
sg15
F-0.13139889828528592
sg16
F-0.34440008620012097
sg17
F0.21881145577534347
sg18
F-0.41241719498528223
sg19
F-0.3536651051235047
sg20
F-0.4097591895940142
sg21
F-0.20004420183185714
sg22
F-0.36504602634405914
sg23
F-0.16150694975996788
sg24
F-0.3966680408453135
sg25
F-0.7246323806813474
ssS'GARLAND C KEVIN'
p264
(dp265
g3
F-0.5386745396291703
sg4
F0.09197560697867756
sg5
I00
sg6
F0.34389891862934496
sg7
F-0.5513811555338348
sg8
F-0.5468460205923764
sg9
F-0.31204329924235513
sg10
F-0.21060771263548447
sg11
F-0.20737646865647177
sg12
F-0.02285987805715433
sg13
F-0.345225326560185
sg14
F-0.18616347583144596
sg15
F0.5116274083529395
sg16
F-0.2854587858866466
sg17
F-0.7232422000947654
sg18
F0.4847671663842822
sg19
F-0.5661758709837884
sg20
F-0.3776904642966372
sg21
F-0.1818772565945478
sg22
F-0.08318084670242176
sg23
F-0.07513596348071497
sg24
F-0.34669504309132504
sg25
F0.06415930897811717
ssS'DODSON KEITH'
p266
(dp267
g3
F-0.5569925879941138
sg4
F-0.41864680932783965
sg5
I00
sg6
F0.40187928109445964
sg7
F-0.41982981371168404
sg8
F-0.677327105145272
sg9
F-0.3901509191601243
sg10
F-0.26390363801655975
sg11
F-0.4521517805495171
sg12
F-0.7016078316945441
sg13
F-0.40155713722266473
sg14
F-0.3128459767528847
sg15
F0.39328624761442577
sg16
F-0.34440008620012097
sg17
F-0.7759488173949625
sg18
F-0.36945277138741633
sg19
F-0.29892748361403776
sg20
F-0.37328670337407016
sg21
F-0.2565582790332721
sg22
F-0.22367164157082411
sg23
F-0.2178741594764784
sg24
F-0.3923568098272486
sg25
F0.5475679566824062
ssS'YEAGER F SCOTT'
p268
(dp269
g3
F-0.6145635971410787
sg4
F0.2317843827887008
sg5
I01
sg6
F-1.04486403289591
sg7
F-0.4636802609857343
sg8
F-0.7090657473338141
sg9
F-0.40289993065217905
sg10
F-0.1332593822889594
sg11
F0.7650431163420909
sg12
F0.2631189396026812
sg13
F1.4480729985505953
sg14
F1.2090281612111504
sg15
F1.5231743592142926
sg16
F1.3485005324538106
sg17
F0.489546083696282
sg18
F-0.21800112760870313
sg19
F-0.2931737523283215
sg20
F1.3124354278107553
sg21
F-0.683774947649217
sg22
F0.3727515441912614
sg23
F-0.21325270624623166
sg24
F1.2795143258896795
sg25
F0.677750374065761
ssS'HIRKO JOSEPH'
p270
(dp271
g3
F-0.605404572958607
sg4
F0.8380176363958278
sg5
I01
sg6
F-2.0247381552794654
sg7
F-0.5513811555338348
sg8
F-0.6808536209439989
sg9
F-0.39729319416710573
sg10
F-0.2620555014968496
sg11
F1.3579698925928552
sg12
F0.5265899644010927
sg13
F4.529429952022312
sg14
F1.2181059542488402
sg15
F1.4305790602695074
sg16
F1.3442663346894639
sg17
F0.5341501061618429
sg18
F-0.17259772723914027
sg19
F-0.2252003257593202
sg20
F0.3952416741164986
sg21
F0.3123574690986367
sg22
F-0.46224091587565835
sg23
F-0.24407922721441805
sg24
F6.039571656554449
sg25
F0.6958052967367712
ssS'DIETRICH JANET R'
p272
(dp273
g3
F0.45180850410383966
sg4
F-1.0414795170098494
sg5
I00
sg6
F-0.11610191038750439
sg7
F2.6058510481977835
sg8
F1.3468929633239726
sg9
F-0.2850606669071258
sg10
F-0.2641708277823776
sg11
F0.07888640872786784
sg12
F-0.24040729909477945
sg13
F-0.18709900212292607
sg14
F-0.23116975552361585
sg15
F0.6237084955401029
sg16
F-0.34440008620012097
sg17
F-0.47447919915706305
sg18
F-0.41241719498528223
sg19
F0.032718105531556345
sg20
F-0.34957809133673967
sg21
F-0.05798442269592169
sg22
F-0.46135732597082557
sg23
F-0.09299988010859597
sg24
F-0.1530132199573311
sg25
F-0.6205329806646791
ssS'DERRICK JR. JAMES V'
p274
(dp275
g3
F0.5721842505020396
sg4
F0.16056818392336342
sg5
I00
sg6
F-1.5904406194519087
sg7
F0.8518331572357731
sg8
F0.6451163193773178
sg9
F0.6735328502654948
sg10
F-0.25794912323547625
sg11
F-0.035573221383136976
sg12
F-0.06636936226467852
sg13
F0.9498603659805064
sg14
F-0.256322283791625
sg15
F-0.260558374259057
sg16
F-0.33744660505472374
sg17
F-0.3851823667896212
sg18
F0.09468700926708026
sg19
F0.10355502748498414
sg20
F0.4007742238376215
sg21
F1.5954328039642627
sg22
F0.06702943711914053
sg23
F-0.1914180888524241
sg24
F1.3904450632141878
sg25
F-0.4836795819879407
ssS'FREVERT MARK A'
p276
(dp277
g3
F0.5983528910233872
sg4
F1.0652888852721416
sg5
I00
sg6
F-5.102344832789407
sg7
F1.1149358408800742
sg8
F2.1791506918235233
sg9
F-0.27227942001149086
sg10
F6.328712676584757
sg11
F1.7552467627598731
sg12
F0.9778582587159205
sg13
F1.8948106194053802
sg14
F-0.3128459767528847
sg15
F0.47728419515216913
sg16
F-0.20186625430192545
sg17
F-0.01846396283182284
sg18
F-0.2173771164266813
sg19
F-0.14115433926322105
sg20
F1.6245713944428333
sg21
F5.475577012562895
sg22
F-0.42336296006301866
sg23
F1.7210531709948038
sg24
F1.7299186264957913
sg25
F-0.38924027279964235
ssS'PAI LOU L'
p278
(dp279
g3
F-0.3319422795105234
sg4
F-0.3206898485789527
sg5
I00
sg6
F-0.5647415579221144
sg7
F-0.1567271300673825
sg8
F-0.05666032456933639
sg9
F-0.38873078061616484
sg10
F1.3593700580800567
sg11
F0.3514087453809277
sg12
F0.10766857456542069
sg13
F3.3955210468568895
sg14
F0.035206857395354015
sg15
F-0.2796533716237818
sg16
F-0.34440008620012097
sg17
F0.0021985976485123077
sg18
F-0.10035306929152062
sg19
F-0.3601048253010891
sg20
F3.798244269513405
sg21
F0.02240192138757962
sg22
F-0.2775706257656199
sg23
F0.10314410377854237
sg24
F2.7750108841503773
sg25
F-0.572763838285215
ssS'BAY FRANKLIN R'
p280
(dp281
g3
F-0.5975539808022027
sg4
F2.1287387128202457
sg5
I00
sg6
F0.23438946183127382
sg7
F-0.4636802609857343
sg8
F-0.7584369685159909
sg9
F-0.40861272023159695
sg10
F-0.2645294479331763
sg11
F-0.41884966277460467
sg12
F-0.4144452359248787
sg13
F-0.48119042615967633
sg14
F-0.3128459767528847
sg15
F-0.2796533716237818
sg16
F-0.34440008620012097
sg17
F-0.7759488173949625
sg18
F-0.4723041661251311
sg19
F-0.29892748361403776
sg20
F-0.43584624448240056
sg21
F-0.12915762775975248
sg22
F-0.38890295377454265
sg23
F-0.15973183719584877
sg24
F-0.4462959765027398
sg25
F5.096748942225365
ssS'MCCARTY DANNY J'
p282
(dp283
g3
F0.17572934660362172
sg4
F-0.48949397412358336
sg5
I00
sg6
F0.3481826889202524
sg7
F-0.2882784718895333
sg8
F-0.3881528096496656
sg9
F0.07849480034649033
sg10
F-0.260780205482272
sg11
F-0.34305819410284455
sg12
F-0.35099112379902775
sg13
F-0.3676194323423431
sg14
F-0.2918347915303479
sg15
F-0.031147742625626747
sg16
F-0.33710422583387656
sg17
F-0.5258629489992818
sg18
F-0.4514252106970024
sg19
F-0.1153954585528836
sg20
F-0.46196031040696983
sg21
F-0.34481553320689673
sg22
F-0.45605578654182927
sg23
F-0.19304621317679568
sg24
F-0.3407328664862643
sg25
F-0.3740103638690978
ssS'FUGH JOHN L'
p284
(dp285
g3
F-0.2754243733026496
sg4
F-0.8217949945917071
sg5
I00
sg6
F0.48112702395502976
sg7
F-0.21999663659123508
sg8
F-0.3953574561053802
sg9
F-0.3176329126470594
sg10
F-0.2623122121754211
sg11
F-0.5688534106708187
sg12
F-0.5548642121564056
sg13
F-0.46268985476523106
sg14
F-0.008963779447316578
sg15
F-0.0029566916536316627
sg16
F0.00799648707650358
sg17
F0.1027530669052302
sg18
F-0.23477285371383058
sg19
F-0.11929369372678263
sg20
F-0.4164743351739221
sg21
F-0.567988187028606
sg22
F-0.20579850132062605
sg23
F-0.24871705517674253
sg24
F-0.44416790849770416
sg25
F0.0652330785302754
ssS'FALLON JAMES B'
p286
(dp287
g3
F0.08152224072676999
sg4
F1.2907437805110775
sg5
I00
sg6
F0.28286018385016665
sg7
F0.150226000850969
sg8
F0.7544383091378526
sg9
F-0.16576902921453293
sg10
F0.09179340348368231
sg11
F-0.208889088326382
sg12
F1.4129531007911724
sg13
F-0.11083547031846436
sg14
F-0.2356119223108235
sg15
F-0.2796533716237818
sg16
F0.14929125304635266
sg17
F2.732217037581028
sg18
F0.40675113496084153
sg19
F-0.5758354512501649
sg20
F0.19934426310587214
sg21
F0.3138715172329201
sg22
F-0.38271782444071356
sg23
F0.16646244451635978
sg24
F-0.2822573712266622
sg25
F-0.4239998837406995
ssS'KOENIG MARK E'
p288
(dp289
g3
F0.2542352681676647
sg4
F2.075131053383887
sg5
I01
sg6
F0.4079145923543962
sg7
F0.2817773426731197
sg8
F1.5161657216628641
sg9
F-0.32056413050611177
sg10
F-0.13103309679835728
sg11
F-0.3264008277190982
sg12
F-0.15338833067972923
sg13
F-0.17812843467285477
sg14
F-0.1719458403300131
sg15
F-0.2796533716237818
sg16
F-0.34440008620012097
sg17
F-0.5909230486860461
sg18
F0.1727030406905205
sg19
F-0.40840272663297167
sg20
F0.12604548446545044
sg21
F0.3504374423198893
sg22
F0.4505074558165409
sg23
F-0.07273677895978721
sg24
F-0.33917242906700096
sg25
F-0.5342331924964021
ssS'SAVAGE FRANK'
p290
(dp291
g3
F-0.2929301591522864
sg4
F-0.977462236618273
sg5
I00
sg6
F0.3698693449769513
sg7
F-0.20303503081025479
sg8
F-0.4063864488960584
sg9
F-0.314649506764215
sg10
F-0.26298501567341553
sg11
F-0.6738006176776463
sg12
F-0.6472649249113139
sg13
F-0.4300797254403012
sg14
F0.02000140566611193
sg15
F-0.029607297807208097
sg16
F0.015531270338526589
sg17
F0.0627573235376338
sg18
F-0.23353383603400907
sg19
F-0.11738819120811618
sg20
F-0.3870427580671838
sg21
F-0.7832104264865752
sg22
F-0.2507446414680121
sg23
F-0.25408075325543594
sg24
F-0.4155863666074099
sg25
F-0.0059401087586193725
ssS'IZZO LAWRENCE L'
p292
(dp293
g3
F-0.5596094520462486
sg4
F-0.42043793583136074
sg5
I00
sg6
F0.17056990294105281
sg7
F-0.3759793664376338
sg8
F-0.5891642101770993
sg9
F-0.35890787119301665
sg10
F1.1146135805072195
sg11
F-0.3066435175060576
sg12
F-0.08991973607734426
sg13
F0.45832441539843766
sg14
F-0.18574753571633162
sg15
F-0.2796533716237818
sg16
F-0.34440008620012097
sg17
F-0.30463667137028105
sg18
F-0.13936108500324088
sg19
F0.6316120820469013
sg20
F1.3524943233962943
sg21
F-1.1828472760711857
sg22
F0.5865803011607797
sg23
F-0.027829362508140137
sg24
F-0.02262640118905327
sg25
F0.4315504306103347
ssS'TILNEY ELIZABETH A'
p294
(dp295
g3
F-0.4497011618565882
sg4
F-0.5901910583948677
sg5
I00
sg6
F-0.39508443205957644
sg7
F-0.41982981371168404
sg8
F-0.31762249367512746
sg9
F-0.25949817311585593
sg10
F-0.12961548199433365
sg11
F-0.3659154481451801
sg12
F-0.501464204339929
sg13
F-0.30085408122776613
sg14
F-0.06464800348644427
sg15
F-0.2796533716237818
sg16
F-0.34440008620012097
sg17
F-0.7759488173949625
sg18
F-0.022337037868080376
sg19
F0.13575362837290594
sg20
F-0.21619249824458575
sg21
F-0.07683382267543143
sg22
F-0.26873472671729276
sg23
F-0.20877622092375006
sg24
F-0.35623232129251614
sg25
F-0.5304828085167667
ssS'MARTIN AMANDA K'
p296
(dp297
g3
F-0.062405282140642435
sg4
F-0.9220038110848626
sg5
I00
sg6
F0.004694202911235906
sg7
F-0.595231602807885
sg8
F-0.5680051153847379
sg9
F-0.05499822278569686
sg10
F2.237276625603494
sg11
F7.332218584666122
sg12
F0.3127476070537495
sg13
F-0.15360804590228594
sg14
F-0.25634842706491123
sg15
F0.22042951924526957
sg16
F-0.34440008620012097
sg17
F-0.38300407926420416
sg18
F-0.26543013750711403
sg19
F-0.29892748361403776
sg20
F-0.011341849964876933
sg21
F0.6202868719323966
sg22
F-0.4595901461611602
sg23
F0.7081656056811733
sg24
F-0.04273404262016355
sg25
F-0.292237804023678
ssS'BUY RICHARD B'
p298
(dp299
g3
F1.3454675779078644
sg4
F-0.2514577825181824
sg5
I00
sg6
F-0.5971687526988152
sg7
F1.7288421027167784
sg8
F1.9499271649062728
sg9
F1.0257272091674368
sg10
F0.09098650814438543
sg11
F0.416255915586484
sg12
F0.020649606150371588
sg13
F0.07065026528712644
sg14
F-0.2851261671509409
sg15
F-0.26027643261594235
sg16
F-0.30754581151665067
sg17
F-0.546124766701588
sg18
F0.8358393077897639
sg19
F0.3128459332564757
sg20
F-0.05062758749936462
sg21
F0.49102311921267455
sg22
F-0.3950880831083716
sg23
F0.015238014994156241
sg24
F0.05741776445180526
sg25
F0.6303515290015488
ssS'GRAMM WENDY L'
p300
(dp301
g3
F-0.29238185266269245
sg4
F-0.6747313168951357
sg5
I00
sg6
F0.40734227420943464
sg7
F-0.24903127686955867
sg8
F-0.38099455150449857
sg9
F-0.3247115137620464
sg10
F-0.25860801369759584
sg11
F-0.4722929103285044
sg12
F-0.474894046161638
sg13
F-0.3737117756188969
sg14
F-0.00931963926487592
sg15
F-0.008301028330416118
sg16
F-0.011752746616262504
sg17
F0.06455371668392106
sg18
F-0.24030983906609155
sg19
F-0.13722195836117432
sg20
F-0.33258060879969703
sg21
F-0.4748170379893809
sg22
F-0.21056289610638562
sg23
F-0.24085019875385838
sg24
F-0.3654074419393192
sg25
F0.0784432602385371
ssS'CAUSEY RICHARD A'
p302
(dp303
g3
F0.16395345836901526
sg4
F-0.3553267033583043
sg5
I01
sg6
F0.17814702592828233
sg7
F0.5887304735914716
sg8
F0.9413436464703778
sg9
F-0.13168570415950642
sg10
F0.008719578155346137
sg11
F-0.24737158686693458
sg12
F0.10766857456542069
sg13
F-0.08314695416635964
sg14
F-0.2150785603015397
sg15
F-0.2796533716237818
sg16
F0.5866007089900827
sg17
F-0.5468146438735476
sg18
F0.09468700926708026
sg19
F-0.42450202707693263
sg20
F0.7650068346332679
sg21
F1.068673286651318
sg22
F-0.31114704214926336
sg23
F-0.040521268480391504
sg24
F0.2607228390038345
sg25
F0.12627673159768615
ssS'MCCONNELL MICHAEL S'
p304
(dp305
g3
F0.7566731661775414
sg4
F0.9234367116200702
sg5
I00
sg6
F-0.09986490972219443
sg7
F0.19407644812501954
sg8
F1.3081012895379758
sg9
F1.4191055858442008
sg10
F-0.264111353648458
sg11
F0.07573472260268302
sg12
F0.1946875429804717
sg13
F0.014642806151677039
sg14
F-0.27833055596091594
sg15
F-0.24131886824563203
sg16
F-0.26670478144287346
sg17
F-0.6771770088689015
sg18
F1.381951527753846
sg19
F-0.09607629802013067
sg20
F0.24323821618716432
sg21
F0.7264154088916048
sg22
F-0.35002499796190295
sg23
F-0.01388587736379346
sg24
F-0.13754216757082652
sg25
F-0.5907161177693917
ssS'TAYLOR MITCHELL S'
p306
(dp307
g3
F-0.5072721710035532
sg4
F-0.26829052721411545
sg5
I00
sg6
F0.12136261565479821
sg7
F-0.3168576203969214
sg8
F-0.5962172417745532
sg9
F-0.3546474555611383
sg10
F-0.24256256240805443
sg11
F-0.1583285139102158
sg12
F-0.24040729909477945
sg13
F0.11970344573770678
sg14
F-0.2782395901843362
sg15
F-0.2796533716237818
sg16
F-0.34440008620012097
sg17
F-0.6276952894982851
sg18
F-0.31044671121147566
sg19
F-0.29892748361403776
sg20
F-0.2228147888890794
sg21
F0.04516178703988306
sg22
F-0.400389622537368
sg23
F-0.12939083275919785
sg24
F0.1927398215887506
sg25
F-0.7971735949277609
ssS'DONAHUE JR JEFFREY M'
p308
(dp309
g3
F-0.2887640226502999
sg4
F1.299421914556302
sg5
I00
sg6
F0.06855865896001506
sg7
F0.9833844990579235
sg8
F-0.08134593516042513
sg9
F-0.3617481482809355
sg10
F-0.2637997802006106
sg11
F-0.30917986395882446
sg12
F-0.06636936226467852
sg13
F-0.3150609612088186
sg14
F-0.3128459767528847
sg15
F-0.2796533716237818
sg16
F-0.34440008620012097
sg17
F0.10840187818998077
sg18
F-0.2563851321384015
sg19
F-0.4792396485863996
sg20
F-0.34957809133673967
sg21
F0.1365220033779251
sg22
F-0.45870655625632745
sg23
F-0.1542280950798751
sg24
F-0.3192095551932611
sg25
F-0.7971735949277609
ssS'GLISAN JR BEN F'
p310
(dp311
g3
F-0.3018483429109736
sg4
F2.0489200613112355
sg5
I01
sg6
F0.4268917804755022
sg7
F0.10637555357691875
sg8
F0.1090859179708285
sg9
F-0.38589050352824594
sg10
F-0.08678256581490296
sg11
F-0.6883183973712144
sg12
F-0.24040729909477945
sg13
F-0.3644183393330804
sg14
F0.017618128822007778
sg15
F-0.2796533716237818
sg16
F-0.34440008620012097
sg17
F-0.6286422458219685
sg18
F-0.29539314785012166
sg19
F0.2581083117470087
sg20
F-0.3094437687067662
sg21
F0.11177619442582709
sg22
F-0.42159578025335326
sg23
F-0.10882268065755638
sg24
F-0.4000063849574293
sg25
F-0.7971735949277609
ss.