(lp0
S'poi'
p1
acnumpy.core.multiarray
scalar
p2
(cnumpy
dtype
p3
(S'S5'
p4
I0
I1
tp5
Rp6
(I3
S'|'
p7
NNNI5
I1
I0
tp8
bS'bonus'
p9
tp10
Rp11
ag2
(g3
(S'S17'
p12
I0
I1
tp13
Rp14
(I3
S'|'
p15
NNNI17
I1
I0
tp16
bS'total_stock_value'
p17
tp18
Rp19
ag2
(g3
(S'S23'
p20
I0
I1
tp21
Rp22
(I3
S'|'
p23
NNNI23
I1
I0
tp24
bS'exercised_stock_options'
p25
tp26
Rp27
ag2
(g3
(S'S19'
p28
I0
I1
tp29
Rp30
(I3
S'|'
p31
NNNI19
I1
I0
tp32
bS'long_term_incentive'
p33
tp34
Rp35
ag2
(g3
(S'S20'
p36
I0
I1
tp37
Rp38
(I3
S'|'
p39
NNNI20
I1
I0
tp40
bS'freq_change_received'
p41
tp42
Rp43
ag2
(g3
(S'S14'
p44
I0
I1
tp45
Rp46
(I3
S'|'
p47
NNNI14
I1
I0
tp48
bS'word_feature_2'
p49
tp50
Rp51
ag2
(g3
(S'S14'
p52
I0
I1
tp53
Rp54
(I3
S'|'
p55
NNNI14
I1
I0
tp56
bS'word_feature_3'
p57
tp58
Rp59
a.